
_finder：     文件格式 elf32-i386


Disassembly of section .text:

00000000 <addFileItem>:
//测试相关函数
void printItemList();
void testHandlers();

// 文件项列表相关操作
void addFileItem(struct stat st, char *name, Rect pos) {
       0:	55                   	push   %ebp
       1:	89 e5                	mov    %esp,%ebp
       3:	53                   	push   %ebx
       4:	83 ec 44             	sub    $0x44,%esp
	//int i;
	struct fileItem *temp = (struct fileItem *) malloc(sizeof(struct fileItem));
       7:	c7 04 24 30 00 00 00 	movl   $0x30,(%esp)
       e:	e8 4b 41 00 00       	call   415e <malloc>
      13:	89 45 f4             	mov    %eax,-0xc(%ebp)
	temp->name = (char *) malloc(32 * sizeof(char));
      16:	c7 04 24 20 00 00 00 	movl   $0x20,(%esp)
      1d:	e8 3c 41 00 00       	call   415e <malloc>
      22:	8b 55 f4             	mov    -0xc(%ebp),%edx
      25:	89 42 14             	mov    %eax,0x14(%edx)
	strcpy(temp->name, name);
      28:	8b 45 f4             	mov    -0xc(%ebp),%eax
      2b:	8b 40 14             	mov    0x14(%eax),%eax
      2e:	8b 55 1c             	mov    0x1c(%ebp),%edx
      31:	89 54 24 04          	mov    %edx,0x4(%esp)
      35:	89 04 24             	mov    %eax,(%esp)
      38:	e8 0a 3a 00 00       	call   3a47 <strcpy>
//    for (i = 0; name[i] != 0; i++)
//    	{
//    		printf(0, "%d : %c\n", i, name[i]);
//    	}
	//printf(0, "copying name\n");
	temp->st = st;
      3d:	8b 45 f4             	mov    -0xc(%ebp),%eax
      40:	8b 55 08             	mov    0x8(%ebp),%edx
      43:	89 10                	mov    %edx,(%eax)
      45:	8b 55 0c             	mov    0xc(%ebp),%edx
      48:	89 50 04             	mov    %edx,0x4(%eax)
      4b:	8b 55 10             	mov    0x10(%ebp),%edx
      4e:	89 50 08             	mov    %edx,0x8(%eax)
      51:	8b 55 14             	mov    0x14(%ebp),%edx
      54:	89 50 0c             	mov    %edx,0xc(%eax)
      57:	8b 55 18             	mov    0x18(%ebp),%edx
      5a:	89 50 10             	mov    %edx,0x10(%eax)
	temp->pos = getPos(context, itemCounter);
      5d:	8b 15 04 d7 00 00    	mov    0xd704,%edx
      63:	8b 5d f4             	mov    -0xc(%ebp),%ebx
      66:	8d 45 d8             	lea    -0x28(%ebp),%eax
      69:	89 54 24 10          	mov    %edx,0x10(%esp)
      6d:	8b 15 80 11 01 00    	mov    0x11180,%edx
      73:	89 54 24 04          	mov    %edx,0x4(%esp)
      77:	8b 15 84 11 01 00    	mov    0x11184,%edx
      7d:	89 54 24 08          	mov    %edx,0x8(%esp)
      81:	8b 15 88 11 01 00    	mov    0x11188,%edx
      87:	89 54 24 0c          	mov    %edx,0xc(%esp)
      8b:	89 04 24             	mov    %eax,(%esp)
      8e:	e8 ca 0d 00 00       	call   e5d <getPos>
      93:	83 ec 04             	sub    $0x4,%esp
      96:	8b 45 d8             	mov    -0x28(%ebp),%eax
      99:	89 43 18             	mov    %eax,0x18(%ebx)
      9c:	8b 45 dc             	mov    -0x24(%ebp),%eax
      9f:	89 43 1c             	mov    %eax,0x1c(%ebx)
      a2:	8b 45 e0             	mov    -0x20(%ebp),%eax
      a5:	89 43 20             	mov    %eax,0x20(%ebx)
      a8:	8b 45 e4             	mov    -0x1c(%ebp),%eax
      ab:	89 43 24             	mov    %eax,0x24(%ebx)
	temp->next = fileItemList;
      ae:	8b 15 00 d7 00 00    	mov    0xd700,%edx
      b4:	8b 45 f4             	mov    -0xc(%ebp),%eax
      b7:	89 50 2c             	mov    %edx,0x2c(%eax)
	temp->chosen = 0;
      ba:	8b 45 f4             	mov    -0xc(%ebp),%eax
      bd:	c7 40 28 00 00 00 00 	movl   $0x0,0x28(%eax)
	fileItemList = temp;
      c4:	8b 45 f4             	mov    -0xc(%ebp),%eax
      c7:	a3 00 d7 00 00       	mov    %eax,0xd700
}
      cc:	8b 5d fc             	mov    -0x4(%ebp),%ebx
      cf:	c9                   	leave  
      d0:	c3                   	ret    

000000d1 <freeFileItemList>:

void freeFileItemList() {
      d1:	55                   	push   %ebp
      d2:	89 e5                	mov    %esp,%ebp
      d4:	83 ec 28             	sub    $0x28,%esp
	struct fileItem *p, *temp;
	p = fileItemList;
      d7:	a1 00 d7 00 00       	mov    0xd700,%eax
      dc:	89 45 f4             	mov    %eax,-0xc(%ebp)
	while (p != 0) {
      df:	eb 28                	jmp    109 <freeFileItemList+0x38>
		temp = p;
      e1:	8b 45 f4             	mov    -0xc(%ebp),%eax
      e4:	89 45 f0             	mov    %eax,-0x10(%ebp)
		p = p->next;
      e7:	8b 45 f4             	mov    -0xc(%ebp),%eax
      ea:	8b 40 2c             	mov    0x2c(%eax),%eax
      ed:	89 45 f4             	mov    %eax,-0xc(%ebp)
		free(temp->name);
      f0:	8b 45 f0             	mov    -0x10(%ebp),%eax
      f3:	8b 40 14             	mov    0x14(%eax),%eax
      f6:	89 04 24             	mov    %eax,(%esp)
      f9:	e8 27 3f 00 00       	call   4025 <free>
		free(temp);
      fe:	8b 45 f0             	mov    -0x10(%ebp),%eax
     101:	89 04 24             	mov    %eax,(%esp)
     104:	e8 1c 3f 00 00       	call   4025 <free>
}

void freeFileItemList() {
	struct fileItem *p, *temp;
	p = fileItemList;
	while (p != 0) {
     109:	83 7d f4 00          	cmpl   $0x0,-0xc(%ebp)
     10d:	75 d2                	jne    e1 <freeFileItemList+0x10>
		temp = p;
		p = p->next;
		free(temp->name);
		free(temp);
	}
	fileItemList = 0;
     10f:	c7 05 00 d7 00 00 00 	movl   $0x0,0xd700
     116:	00 00 00 
}
     119:	c9                   	leave  
     11a:	c3                   	ret    

0000011b <fmtname>:

// 文件信息相关操作
char* fmtname(char *path) {
     11b:	55                   	push   %ebp
     11c:	89 e5                	mov    %esp,%ebp
     11e:	83 ec 28             	sub    $0x28,%esp
	//static char buf[DIRSIZ+1];
	char *p;

	// Find first character after last slash.
	for (p = path + strlen(path); p >= path && *p != '/'; p--)
     121:	8b 45 08             	mov    0x8(%ebp),%eax
     124:	89 04 24             	mov    %eax,(%esp)
     127:	e8 8a 39 00 00       	call   3ab6 <strlen>
     12c:	8b 55 08             	mov    0x8(%ebp),%edx
     12f:	01 d0                	add    %edx,%eax
     131:	89 45 f4             	mov    %eax,-0xc(%ebp)
     134:	eb 04                	jmp    13a <fmtname+0x1f>
     136:	83 6d f4 01          	subl   $0x1,-0xc(%ebp)
     13a:	8b 45 f4             	mov    -0xc(%ebp),%eax
     13d:	3b 45 08             	cmp    0x8(%ebp),%eax
     140:	72 0a                	jb     14c <fmtname+0x31>
     142:	8b 45 f4             	mov    -0xc(%ebp),%eax
     145:	0f b6 00             	movzbl (%eax),%eax
     148:	3c 2f                	cmp    $0x2f,%al
     14a:	75 ea                	jne    136 <fmtname+0x1b>
		;
	p++;
     14c:	83 45 f4 01          	addl   $0x1,-0xc(%ebp)

	return p;
     150:	8b 45 f4             	mov    -0xc(%ebp),%eax
}
     153:	c9                   	leave  
     154:	c3                   	ret    

00000155 <isListable>:

int isListable(char *name, short type) {
     155:	55                   	push   %ebp
     156:	89 e5                	mov    %esp,%ebp
     158:	83 ec 14             	sub    $0x14,%esp
     15b:	8b 45 0c             	mov    0xc(%ebp),%eax
     15e:	66 89 45 ec          	mov    %ax,-0x14(%ebp)
	char *p = name;
     162:	8b 45 08             	mov    0x8(%ebp),%eax
     165:	89 45 fc             	mov    %eax,-0x4(%ebp)
	if (*p == '.') return 0;
     168:	8b 45 fc             	mov    -0x4(%ebp),%eax
     16b:	0f b6 00             	movzbl (%eax),%eax
     16e:	3c 2e                	cmp    $0x2e,%al
     170:	75 07                	jne    179 <isListable+0x24>
     172:	b8 00 00 00 00       	mov    $0x0,%eax
     177:	eb 34                	jmp    1ad <isListable+0x58>
	if (type == T_DIR) return 1;
     179:	66 83 7d ec 01       	cmpw   $0x1,-0x14(%ebp)
     17e:	75 07                	jne    187 <isListable+0x32>
     180:	b8 01 00 00 00       	mov    $0x1,%eax
     185:	eb 26                	jmp    1ad <isListable+0x58>
	while (*p != 0) {
     187:	eb 15                	jmp    19e <isListable+0x49>
		if (*p == '.')
     189:	8b 45 fc             	mov    -0x4(%ebp),%eax
     18c:	0f b6 00             	movzbl (%eax),%eax
     18f:	3c 2e                	cmp    $0x2e,%al
     191:	75 07                	jne    19a <isListable+0x45>
			return 1;
     193:	b8 01 00 00 00       	mov    $0x1,%eax
     198:	eb 13                	jmp    1ad <isListable+0x58>
		p++;
     19a:	83 45 fc 01          	addl   $0x1,-0x4(%ebp)

int isListable(char *name, short type) {
	char *p = name;
	if (*p == '.') return 0;
	if (type == T_DIR) return 1;
	while (*p != 0) {
     19e:	8b 45 fc             	mov    -0x4(%ebp),%eax
     1a1:	0f b6 00             	movzbl (%eax),%eax
     1a4:	84 c0                	test   %al,%al
     1a6:	75 e1                	jne    189 <isListable+0x34>
		if (*p == '.')
			return 1;
		p++;
	}
	return 0;
     1a8:	b8 00 00 00 00       	mov    $0x0,%eax
}
     1ad:	c9                   	leave  
     1ae:	c3                   	ret    

000001af <list>:

void list(char *path) {
     1af:	55                   	push   %ebp
     1b0:	89 e5                	mov    %esp,%ebp
     1b2:	57                   	push   %edi
     1b3:	56                   	push   %esi
     1b4:	53                   	push   %ebx
     1b5:	81 ec 7c 02 00 00    	sub    $0x27c,%esp
	char buf[512], *p;
	int fd;
	struct dirent de;
	struct stat st;

	itemCounter = 0;
     1bb:	c7 05 04 d7 00 00 00 	movl   $0x0,0xd704
     1c2:	00 00 00 
	if ((fd = open(path, 0)) < 0) {
     1c5:	c7 44 24 04 00 00 00 	movl   $0x0,0x4(%esp)
     1cc:	00 
     1cd:	8b 45 08             	mov    0x8(%ebp),%eax
     1d0:	89 04 24             	mov    %eax,(%esp)
     1d3:	e8 f2 3a 00 00       	call   3cca <open>
     1d8:	89 45 e4             	mov    %eax,-0x1c(%ebp)
     1db:	83 7d e4 00          	cmpl   $0x0,-0x1c(%ebp)
     1df:	79 20                	jns    201 <list+0x52>
		printf(2, "ls: cannot open %s\n", path);
     1e1:	8b 45 08             	mov    0x8(%ebp),%eax
     1e4:	89 44 24 08          	mov    %eax,0x8(%esp)
     1e8:	c7 44 24 04 e8 89 00 	movl   $0x89e8,0x4(%esp)
     1ef:	00 
     1f0:	c7 04 24 02 00 00 00 	movl   $0x2,(%esp)
     1f7:	e8 76 3c 00 00       	call   3e72 <printf>
		return;
     1fc:	e9 8f 02 00 00       	jmp    490 <list+0x2e1>
	}

	if (fstat(fd, &st) < 0) {
     201:	8d 85 ac fd ff ff    	lea    -0x254(%ebp),%eax
     207:	89 44 24 04          	mov    %eax,0x4(%esp)
     20b:	8b 45 e4             	mov    -0x1c(%ebp),%eax
     20e:	89 04 24             	mov    %eax,(%esp)
     211:	e8 cc 3a 00 00       	call   3ce2 <fstat>
     216:	85 c0                	test   %eax,%eax
     218:	79 2b                	jns    245 <list+0x96>
		printf(2, "ls: cannot stat %s\n", path);
     21a:	8b 45 08             	mov    0x8(%ebp),%eax
     21d:	89 44 24 08          	mov    %eax,0x8(%esp)
     221:	c7 44 24 04 fc 89 00 	movl   $0x89fc,0x4(%esp)
     228:	00 
     229:	c7 04 24 02 00 00 00 	movl   $0x2,(%esp)
     230:	e8 3d 3c 00 00       	call   3e72 <printf>
		close(fd);
     235:	8b 45 e4             	mov    -0x1c(%ebp),%eax
     238:	89 04 24             	mov    %eax,(%esp)
     23b:	e8 72 3a 00 00       	call   3cb2 <close>
		return;
     240:	e9 4b 02 00 00       	jmp    490 <list+0x2e1>
	}

	switch (st.type) {
     245:	0f b7 85 ac fd ff ff 	movzwl -0x254(%ebp),%eax
     24c:	98                   	cwtl   
     24d:	83 f8 01             	cmp    $0x1,%eax
     250:	74 53                	je     2a5 <list+0xf6>
     252:	83 f8 02             	cmp    $0x2,%eax
     255:	0f 85 2a 02 00 00    	jne    485 <list+0x2d6>
	case T_FILE:
		printf(1, "%s %d %d %d\n", fmtname(path), st.type, st.ino, st.size);
     25b:	8b bd bc fd ff ff    	mov    -0x244(%ebp),%edi
     261:	8b b5 b4 fd ff ff    	mov    -0x24c(%ebp),%esi
     267:	0f b7 85 ac fd ff ff 	movzwl -0x254(%ebp),%eax
     26e:	0f bf d8             	movswl %ax,%ebx
     271:	8b 45 08             	mov    0x8(%ebp),%eax
     274:	89 04 24             	mov    %eax,(%esp)
     277:	e8 9f fe ff ff       	call   11b <fmtname>
     27c:	89 7c 24 14          	mov    %edi,0x14(%esp)
     280:	89 74 24 10          	mov    %esi,0x10(%esp)
     284:	89 5c 24 0c          	mov    %ebx,0xc(%esp)
     288:	89 44 24 08          	mov    %eax,0x8(%esp)
     28c:	c7 44 24 04 10 8a 00 	movl   $0x8a10,0x4(%esp)
     293:	00 
     294:	c7 04 24 01 00 00 00 	movl   $0x1,(%esp)
     29b:	e8 d2 3b 00 00       	call   3e72 <printf>
		break;
     2a0:	e9 e0 01 00 00       	jmp    485 <list+0x2d6>

	case T_DIR:
		if (strlen(path) + 1 + DIRSIZ + 1 > sizeof buf) {
     2a5:	8b 45 08             	mov    0x8(%ebp),%eax
     2a8:	89 04 24             	mov    %eax,(%esp)
     2ab:	e8 06 38 00 00       	call   3ab6 <strlen>
     2b0:	83 c0 10             	add    $0x10,%eax
     2b3:	3d 00 02 00 00       	cmp    $0x200,%eax
     2b8:	76 19                	jbe    2d3 <list+0x124>
			printf(1, "ls: path too long\n");
     2ba:	c7 44 24 04 1d 8a 00 	movl   $0x8a1d,0x4(%esp)
     2c1:	00 
     2c2:	c7 04 24 01 00 00 00 	movl   $0x1,(%esp)
     2c9:	e8 a4 3b 00 00       	call   3e72 <printf>
			break;
     2ce:	e9 b2 01 00 00       	jmp    485 <list+0x2d6>
		}
		strcpy(buf, path);
     2d3:	8b 45 08             	mov    0x8(%ebp),%eax
     2d6:	89 44 24 04          	mov    %eax,0x4(%esp)
     2da:	8d 85 d0 fd ff ff    	lea    -0x230(%ebp),%eax
     2e0:	89 04 24             	mov    %eax,(%esp)
     2e3:	e8 5f 37 00 00       	call   3a47 <strcpy>
		p = buf + strlen(buf);
     2e8:	8d 85 d0 fd ff ff    	lea    -0x230(%ebp),%eax
     2ee:	89 04 24             	mov    %eax,(%esp)
     2f1:	e8 c0 37 00 00       	call   3ab6 <strlen>
     2f6:	8d 95 d0 fd ff ff    	lea    -0x230(%ebp),%edx
     2fc:	01 d0                	add    %edx,%eax
     2fe:	89 45 e0             	mov    %eax,-0x20(%ebp)
		*p++ = '/';
     301:	8b 45 e0             	mov    -0x20(%ebp),%eax
     304:	8d 50 01             	lea    0x1(%eax),%edx
     307:	89 55 e0             	mov    %edx,-0x20(%ebp)
     30a:	c6 00 2f             	movb   $0x2f,(%eax)
		while (read(fd, &de, sizeof(de)) == sizeof(de)) {
     30d:	e9 4c 01 00 00       	jmp    45e <list+0x2af>
			if (de.inum == 0)
     312:	0f b7 85 c0 fd ff ff 	movzwl -0x240(%ebp),%eax
     319:	66 85 c0             	test   %ax,%ax
     31c:	75 05                	jne    323 <list+0x174>
				continue;
     31e:	e9 3b 01 00 00       	jmp    45e <list+0x2af>
			memmove(p, de.name, DIRSIZ);
     323:	c7 44 24 08 0e 00 00 	movl   $0xe,0x8(%esp)
     32a:	00 
     32b:	8d 85 c0 fd ff ff    	lea    -0x240(%ebp),%eax
     331:	83 c0 02             	add    $0x2,%eax
     334:	89 44 24 04          	mov    %eax,0x4(%esp)
     338:	8b 45 e0             	mov    -0x20(%ebp),%eax
     33b:	89 04 24             	mov    %eax,(%esp)
     33e:	e8 02 39 00 00       	call   3c45 <memmove>
			p[DIRSIZ] = 0;
     343:	8b 45 e0             	mov    -0x20(%ebp),%eax
     346:	83 c0 0e             	add    $0xe,%eax
     349:	c6 00 00             	movb   $0x0,(%eax)
			if (stat(buf, &st) < 0) {
     34c:	8d 85 ac fd ff ff    	lea    -0x254(%ebp),%eax
     352:	89 44 24 04          	mov    %eax,0x4(%esp)
     356:	8d 85 d0 fd ff ff    	lea    -0x230(%ebp),%eax
     35c:	89 04 24             	mov    %eax,(%esp)
     35f:	e8 46 38 00 00       	call   3baa <stat>
     364:	85 c0                	test   %eax,%eax
     366:	79 23                	jns    38b <list+0x1dc>
				printf(1, "ls: cannot stat %s\n", buf);
     368:	8d 85 d0 fd ff ff    	lea    -0x230(%ebp),%eax
     36e:	89 44 24 08          	mov    %eax,0x8(%esp)
     372:	c7 44 24 04 fc 89 00 	movl   $0x89fc,0x4(%esp)
     379:	00 
     37a:	c7 04 24 01 00 00 00 	movl   $0x1,(%esp)
     381:	e8 ec 3a 00 00       	call   3e72 <printf>
				continue;
     386:	e9 d3 00 00 00       	jmp    45e <list+0x2af>
			}
			if (isListable(fmtname(buf), st.type)) {
     38b:	0f b7 85 ac fd ff ff 	movzwl -0x254(%ebp),%eax
     392:	0f bf d8             	movswl %ax,%ebx
     395:	8d 85 d0 fd ff ff    	lea    -0x230(%ebp),%eax
     39b:	89 04 24             	mov    %eax,(%esp)
     39e:	e8 78 fd ff ff       	call   11b <fmtname>
     3a3:	89 5c 24 04          	mov    %ebx,0x4(%esp)
     3a7:	89 04 24             	mov    %eax,(%esp)
     3aa:	e8 a6 fd ff ff       	call   155 <isListable>
     3af:	85 c0                	test   %eax,%eax
     3b1:	0f 84 a7 00 00 00    	je     45e <list+0x2af>
				addFileItem(st, fmtname(buf), getPos(context, itemCounter));
     3b7:	8b 15 04 d7 00 00    	mov    0xd704,%edx
     3bd:	8d 45 d0             	lea    -0x30(%ebp),%eax
     3c0:	89 54 24 10          	mov    %edx,0x10(%esp)
     3c4:	8b 15 80 11 01 00    	mov    0x11180,%edx
     3ca:	89 54 24 04          	mov    %edx,0x4(%esp)
     3ce:	8b 15 84 11 01 00    	mov    0x11184,%edx
     3d4:	89 54 24 08          	mov    %edx,0x8(%esp)
     3d8:	8b 15 88 11 01 00    	mov    0x11188,%edx
     3de:	89 54 24 0c          	mov    %edx,0xc(%esp)
     3e2:	89 04 24             	mov    %eax,(%esp)
     3e5:	e8 73 0a 00 00       	call   e5d <getPos>
     3ea:	83 ec 04             	sub    $0x4,%esp
     3ed:	8d 85 d0 fd ff ff    	lea    -0x230(%ebp),%eax
     3f3:	89 04 24             	mov    %eax,(%esp)
     3f6:	e8 20 fd ff ff       	call   11b <fmtname>
     3fb:	8b 55 d0             	mov    -0x30(%ebp),%edx
     3fe:	89 54 24 18          	mov    %edx,0x18(%esp)
     402:	8b 55 d4             	mov    -0x2c(%ebp),%edx
     405:	89 54 24 1c          	mov    %edx,0x1c(%esp)
     409:	8b 55 d8             	mov    -0x28(%ebp),%edx
     40c:	89 54 24 20          	mov    %edx,0x20(%esp)
     410:	8b 55 dc             	mov    -0x24(%ebp),%edx
     413:	89 54 24 24          	mov    %edx,0x24(%esp)
     417:	89 44 24 14          	mov    %eax,0x14(%esp)
     41b:	8b 85 ac fd ff ff    	mov    -0x254(%ebp),%eax
     421:	89 04 24             	mov    %eax,(%esp)
     424:	8b 85 b0 fd ff ff    	mov    -0x250(%ebp),%eax
     42a:	89 44 24 04          	mov    %eax,0x4(%esp)
     42e:	8b 85 b4 fd ff ff    	mov    -0x24c(%ebp),%eax
     434:	89 44 24 08          	mov    %eax,0x8(%esp)
     438:	8b 85 b8 fd ff ff    	mov    -0x248(%ebp),%eax
     43e:	89 44 24 0c          	mov    %eax,0xc(%esp)
     442:	8b 85 bc fd ff ff    	mov    -0x244(%ebp),%eax
     448:	89 44 24 10          	mov    %eax,0x10(%esp)
     44c:	e8 af fb ff ff       	call   0 <addFileItem>
				itemCounter++;
     451:	a1 04 d7 00 00       	mov    0xd704,%eax
     456:	83 c0 01             	add    $0x1,%eax
     459:	a3 04 d7 00 00       	mov    %eax,0xd704
			break;
		}
		strcpy(buf, path);
		p = buf + strlen(buf);
		*p++ = '/';
		while (read(fd, &de, sizeof(de)) == sizeof(de)) {
     45e:	c7 44 24 08 10 00 00 	movl   $0x10,0x8(%esp)
     465:	00 
     466:	8d 85 c0 fd ff ff    	lea    -0x240(%ebp),%eax
     46c:	89 44 24 04          	mov    %eax,0x4(%esp)
     470:	8b 45 e4             	mov    -0x1c(%ebp),%eax
     473:	89 04 24             	mov    %eax,(%esp)
     476:	e8 27 38 00 00       	call   3ca2 <read>
     47b:	83 f8 10             	cmp    $0x10,%eax
     47e:	0f 84 8e fe ff ff    	je     312 <list+0x163>
			if (isListable(fmtname(buf), st.type)) {
				addFileItem(st, fmtname(buf), getPos(context, itemCounter));
				itemCounter++;
			}
		}
		break;
     484:	90                   	nop
	}
	close(fd);
     485:	8b 45 e4             	mov    -0x1c(%ebp),%eax
     488:	89 04 24             	mov    %eax,(%esp)
     48b:	e8 22 38 00 00       	call   3cb2 <close>
}
     490:	8d 65 f4             	lea    -0xc(%ebp),%esp
     493:	5b                   	pop    %ebx
     494:	5e                   	pop    %esi
     495:	5f                   	pop    %edi
     496:	5d                   	pop    %ebp
     497:	c3                   	ret    

00000498 <drawItem>:
#define FILE_ICON_BIG 0
#define FILE_ICON_SMALL 1
#define FOLDER_ICON_BIG 2
#define FOLDER_ICON_SMALL 3

void drawItem(Context context, char *name, struct stat st, Rect rect, int chosen) {
     498:	55                   	push   %ebp
     499:	89 e5                	mov    %esp,%ebp
     49b:	53                   	push   %ebx
     49c:	83 ec 34             	sub    $0x34,%esp
	//cprintf("draw finder Item: type=%d counter=%d\n", type, n);
	unsigned short nameColor;
	if (chosen == 0) 
     49f:	83 7d 3c 00          	cmpl   $0x0,0x3c(%ebp)
     4a3:	75 08                	jne    4ad <drawItem+0x15>
		nameColor = 0x0;
     4a5:	66 c7 45 f6 00 00    	movw   $0x0,-0xa(%ebp)
     4ab:	eb 49                	jmp    4f6 <drawItem+0x5e>
	else 
	{
		nameColor = 0xFFFF;
     4ad:	66 c7 45 f6 ff ff    	movw   $0xffff,-0xa(%ebp)
		fill_rect(context, rect.start.x, rect.start.y, rect.width, rect.height, 0x2110);
     4b3:	8b 45 38             	mov    0x38(%ebp),%eax
     4b6:	89 c3                	mov    %eax,%ebx
     4b8:	8b 45 34             	mov    0x34(%ebp),%eax
     4bb:	89 c1                	mov    %eax,%ecx
     4bd:	8b 45 30             	mov    0x30(%ebp),%eax
     4c0:	89 c2                	mov    %eax,%edx
     4c2:	8b 45 2c             	mov    0x2c(%ebp),%eax
     4c5:	c7 44 24 1c 10 21 00 	movl   $0x2110,0x1c(%esp)
     4cc:	00 
     4cd:	89 5c 24 18          	mov    %ebx,0x18(%esp)
     4d1:	89 4c 24 14          	mov    %ecx,0x14(%esp)
     4d5:	89 54 24 10          	mov    %edx,0x10(%esp)
     4d9:	89 44 24 0c          	mov    %eax,0xc(%esp)
     4dd:	8b 45 08             	mov    0x8(%ebp),%eax
     4e0:	89 04 24             	mov    %eax,(%esp)
     4e3:	8b 45 0c             	mov    0xc(%ebp),%eax
     4e6:	89 44 24 04          	mov    %eax,0x4(%esp)
     4ea:	8b 45 10             	mov    0x10(%ebp),%eax
     4ed:	89 44 24 08          	mov    %eax,0x8(%esp)
     4f1:	e8 fe 19 00 00       	call   1ef4 <fill_rect>
	}
	if (style == ICON_STYLE) {
     4f6:	a1 64 a3 00 00       	mov    0xa364,%eax
     4fb:	83 f8 01             	cmp    $0x1,%eax
     4fe:	0f 85 13 01 00 00    	jne    617 <drawItem+0x17f>
		switch (st.type) {
     504:	0f b7 45 18          	movzwl 0x18(%ebp),%eax
     508:	98                   	cwtl   
     509:	83 f8 01             	cmp    $0x1,%eax
     50c:	74 53                	je     561 <drawItem+0xc9>
     50e:	83 f8 02             	cmp    $0x2,%eax
     511:	0f 85 93 00 00 00    	jne    5aa <drawItem+0x112>
		case T_FILE:
			draw_picture(context, contentRes[FILE_ICON_BIG].pic,
					rect.start.x + ICON_ITEM_OFFSET_X,
					rect.start.y + ICON_ITEM_OFFSET_Y);
     517:	8b 45 30             	mov    0x30(%ebp),%eax
		fill_rect(context, rect.start.x, rect.start.y, rect.width, rect.height, 0x2110);
	}
	if (style == ICON_STYLE) {
		switch (st.type) {
		case T_FILE:
			draw_picture(context, contentRes[FILE_ICON_BIG].pic,
     51a:	8d 50 0a             	lea    0xa(%eax),%edx
					rect.start.x + ICON_ITEM_OFFSET_X,
     51d:	8b 45 2c             	mov    0x2c(%ebp),%eax
		fill_rect(context, rect.start.x, rect.start.y, rect.width, rect.height, 0x2110);
	}
	if (style == ICON_STYLE) {
		switch (st.type) {
		case T_FILE:
			draw_picture(context, contentRes[FILE_ICON_BIG].pic,
     520:	83 c0 19             	add    $0x19,%eax
     523:	89 54 24 1c          	mov    %edx,0x1c(%esp)
     527:	89 44 24 18          	mov    %eax,0x18(%esp)
     52b:	a1 a8 a3 00 00       	mov    0xa3a8,%eax
     530:	89 44 24 0c          	mov    %eax,0xc(%esp)
     534:	a1 ac a3 00 00       	mov    0xa3ac,%eax
     539:	89 44 24 10          	mov    %eax,0x10(%esp)
     53d:	a1 b0 a3 00 00       	mov    0xa3b0,%eax
     542:	89 44 24 14          	mov    %eax,0x14(%esp)
     546:	8b 45 08             	mov    0x8(%ebp),%eax
     549:	89 04 24             	mov    %eax,(%esp)
     54c:	8b 45 0c             	mov    0xc(%ebp),%eax
     54f:	89 44 24 04          	mov    %eax,0x4(%esp)
     553:	8b 45 10             	mov    0x10(%ebp),%eax
     556:	89 44 24 08          	mov    %eax,0x8(%esp)
     55a:	e8 34 20 00 00       	call   2593 <draw_picture>
					rect.start.x + ICON_ITEM_OFFSET_X,
					rect.start.y + ICON_ITEM_OFFSET_Y);
			break;
     55f:	eb 49                	jmp    5aa <drawItem+0x112>
		case T_DIR:
			draw_picture(context, contentRes[FOLDER_ICON_BIG].pic,
					rect.start.x + ICON_ITEM_OFFSET_X,
					rect.start.y + ICON_ITEM_OFFSET_Y);
     561:	8b 45 30             	mov    0x30(%ebp),%eax
			draw_picture(context, contentRes[FILE_ICON_BIG].pic,
					rect.start.x + ICON_ITEM_OFFSET_X,
					rect.start.y + ICON_ITEM_OFFSET_Y);
			break;
		case T_DIR:
			draw_picture(context, contentRes[FOLDER_ICON_BIG].pic,
     564:	8d 50 0a             	lea    0xa(%eax),%edx
					rect.start.x + ICON_ITEM_OFFSET_X,
     567:	8b 45 2c             	mov    0x2c(%ebp),%eax
			draw_picture(context, contentRes[FILE_ICON_BIG].pic,
					rect.start.x + ICON_ITEM_OFFSET_X,
					rect.start.y + ICON_ITEM_OFFSET_Y);
			break;
		case T_DIR:
			draw_picture(context, contentRes[FOLDER_ICON_BIG].pic,
     56a:	83 c0 19             	add    $0x19,%eax
     56d:	89 54 24 1c          	mov    %edx,0x1c(%esp)
     571:	89 44 24 18          	mov    %eax,0x18(%esp)
     575:	a1 10 a4 00 00       	mov    0xa410,%eax
     57a:	89 44 24 0c          	mov    %eax,0xc(%esp)
     57e:	a1 14 a4 00 00       	mov    0xa414,%eax
     583:	89 44 24 10          	mov    %eax,0x10(%esp)
     587:	a1 18 a4 00 00       	mov    0xa418,%eax
     58c:	89 44 24 14          	mov    %eax,0x14(%esp)
     590:	8b 45 08             	mov    0x8(%ebp),%eax
     593:	89 04 24             	mov    %eax,(%esp)
     596:	8b 45 0c             	mov    0xc(%ebp),%eax
     599:	89 44 24 04          	mov    %eax,0x4(%esp)
     59d:	8b 45 10             	mov    0x10(%ebp),%eax
     5a0:	89 44 24 08          	mov    %eax,0x8(%esp)
     5a4:	e8 ea 1f 00 00       	call   2593 <draw_picture>
					rect.start.x + ICON_ITEM_OFFSET_X,
					rect.start.y + ICON_ITEM_OFFSET_Y);
			break;
     5a9:	90                   	nop
		}
		int indent;
		indent = ((ICON_ITEM_WIDTH / 8) - strlen(name)) * 4;
     5aa:	8b 45 14             	mov    0x14(%ebp),%eax
     5ad:	89 04 24             	mov    %eax,(%esp)
     5b0:	e8 01 35 00 00       	call   3ab6 <strlen>
     5b5:	89 c2                	mov    %eax,%edx
     5b7:	b8 00 00 00 00       	mov    $0x0,%eax
     5bc:	29 d0                	sub    %edx,%eax
     5be:	c1 e0 02             	shl    $0x2,%eax
     5c1:	83 c0 30             	add    $0x30,%eax
     5c4:	89 45 f0             	mov    %eax,-0x10(%ebp)
		//printf(0,"indent: %d  filenamelen: %d\n", indent, strlen(name));
		if (indent < 0)
     5c7:	83 7d f0 00          	cmpl   $0x0,-0x10(%ebp)
     5cb:	79 07                	jns    5d4 <drawItem+0x13c>
			indent = 0;
     5cd:	c7 45 f0 00 00 00 00 	movl   $0x0,-0x10(%ebp)
		puts_str(context, name, nameColor, rect.start.x + indent,
				rect.start.y + ICON_ITEM_OFFSET_Y + ICON_HEIGHT_BIG + 10);
     5d4:	8b 45 30             	mov    0x30(%ebp),%eax
		int indent;
		indent = ((ICON_ITEM_WIDTH / 8) - strlen(name)) * 4;
		//printf(0,"indent: %d  filenamelen: %d\n", indent, strlen(name));
		if (indent < 0)
			indent = 0;
		puts_str(context, name, nameColor, rect.start.x + indent,
     5d7:	8d 48 46             	lea    0x46(%eax),%ecx
     5da:	8b 55 2c             	mov    0x2c(%ebp),%edx
     5dd:	8b 45 f0             	mov    -0x10(%ebp),%eax
     5e0:	01 c2                	add    %eax,%edx
     5e2:	0f b7 45 f6          	movzwl -0xa(%ebp),%eax
     5e6:	89 4c 24 18          	mov    %ecx,0x18(%esp)
     5ea:	89 54 24 14          	mov    %edx,0x14(%esp)
     5ee:	89 44 24 10          	mov    %eax,0x10(%esp)
     5f2:	8b 45 14             	mov    0x14(%ebp),%eax
     5f5:	89 44 24 0c          	mov    %eax,0xc(%esp)
     5f9:	8b 45 08             	mov    0x8(%ebp),%eax
     5fc:	89 04 24             	mov    %eax,(%esp)
     5ff:	8b 45 0c             	mov    0xc(%ebp),%eax
     602:	89 44 24 04          	mov    %eax,0x4(%esp)
     606:	8b 45 10             	mov    0x10(%ebp),%eax
     609:	89 44 24 08          	mov    %eax,0x8(%esp)
     60d:	e8 c1 1e 00 00       	call   24d3 <puts_str>
     612:	e9 33 01 00 00       	jmp    74a <drawItem+0x2b2>
				rect.start.y + ICON_ITEM_OFFSET_Y + ICON_HEIGHT_BIG + 10);
	} else {
		switch (st.type) {
     617:	0f b7 45 18          	movzwl 0x18(%ebp),%eax
     61b:	98                   	cwtl   
     61c:	83 f8 01             	cmp    $0x1,%eax
     61f:	0f 84 a0 00 00 00    	je     6c5 <drawItem+0x22d>
     625:	83 f8 02             	cmp    $0x2,%eax
     628:	0f 85 e0 00 00 00    	jne    70e <drawItem+0x276>
		case T_FILE:
			draw_picture(context, contentRes[FILE_ICON_SMALL].pic, 
					rect.start.x + LIST_ITEM_OFFSET_X, rect.start.y + LIST_ITEM_OFFSET_Y);
     62e:	8b 45 30             	mov    0x30(%ebp),%eax
		puts_str(context, name, nameColor, rect.start.x + indent,
				rect.start.y + ICON_ITEM_OFFSET_Y + ICON_HEIGHT_BIG + 10);
	} else {
		switch (st.type) {
		case T_FILE:
			draw_picture(context, contentRes[FILE_ICON_SMALL].pic, 
     631:	8d 50 03             	lea    0x3(%eax),%edx
					rect.start.x + LIST_ITEM_OFFSET_X, rect.start.y + LIST_ITEM_OFFSET_Y);
     634:	8b 45 2c             	mov    0x2c(%ebp),%eax
		puts_str(context, name, nameColor, rect.start.x + indent,
				rect.start.y + ICON_ITEM_OFFSET_Y + ICON_HEIGHT_BIG + 10);
	} else {
		switch (st.type) {
		case T_FILE:
			draw_picture(context, contentRes[FILE_ICON_SMALL].pic, 
     637:	83 c0 08             	add    $0x8,%eax
     63a:	89 54 24 1c          	mov    %edx,0x1c(%esp)
     63e:	89 44 24 18          	mov    %eax,0x18(%esp)
     642:	a1 dc a3 00 00       	mov    0xa3dc,%eax
     647:	89 44 24 0c          	mov    %eax,0xc(%esp)
     64b:	a1 e0 a3 00 00       	mov    0xa3e0,%eax
     650:	89 44 24 10          	mov    %eax,0x10(%esp)
     654:	a1 e4 a3 00 00       	mov    0xa3e4,%eax
     659:	89 44 24 14          	mov    %eax,0x14(%esp)
     65d:	8b 45 08             	mov    0x8(%ebp),%eax
     660:	89 04 24             	mov    %eax,(%esp)
     663:	8b 45 0c             	mov    0xc(%ebp),%eax
     666:	89 44 24 04          	mov    %eax,0x4(%esp)
     66a:	8b 45 10             	mov    0x10(%ebp),%eax
     66d:	89 44 24 08          	mov    %eax,0x8(%esp)
     671:	e8 1d 1f 00 00       	call   2593 <draw_picture>
					rect.start.x + LIST_ITEM_OFFSET_X, rect.start.y + LIST_ITEM_OFFSET_Y);
			char *size;
			size = sizeFormat(st.size);
     676:	8b 45 28             	mov    0x28(%ebp),%eax
     679:	89 04 24             	mov    %eax,(%esp)
     67c:	e8 cf 00 00 00       	call   750 <sizeFormat>
     681:	89 45 ec             	mov    %eax,-0x14(%ebp)
			puts_str(context, size, nameColor, rect.start.x + LIST_ITEM_SIZE,
					rect.start.y + LIST_ITEM_OFFSET_Y);
     684:	8b 45 30             	mov    0x30(%ebp),%eax
		case T_FILE:
			draw_picture(context, contentRes[FILE_ICON_SMALL].pic, 
					rect.start.x + LIST_ITEM_OFFSET_X, rect.start.y + LIST_ITEM_OFFSET_Y);
			char *size;
			size = sizeFormat(st.size);
			puts_str(context, size, nameColor, rect.start.x + LIST_ITEM_SIZE,
     687:	8d 48 03             	lea    0x3(%eax),%ecx
     68a:	8b 45 2c             	mov    0x2c(%ebp),%eax
     68d:	8d 90 c8 00 00 00    	lea    0xc8(%eax),%edx
     693:	0f b7 45 f6          	movzwl -0xa(%ebp),%eax
     697:	89 4c 24 18          	mov    %ecx,0x18(%esp)
     69b:	89 54 24 14          	mov    %edx,0x14(%esp)
     69f:	89 44 24 10          	mov    %eax,0x10(%esp)
     6a3:	8b 45 ec             	mov    -0x14(%ebp),%eax
     6a6:	89 44 24 0c          	mov    %eax,0xc(%esp)
     6aa:	8b 45 08             	mov    0x8(%ebp),%eax
     6ad:	89 04 24             	mov    %eax,(%esp)
     6b0:	8b 45 0c             	mov    0xc(%ebp),%eax
     6b3:	89 44 24 04          	mov    %eax,0x4(%esp)
     6b7:	8b 45 10             	mov    0x10(%ebp),%eax
     6ba:	89 44 24 08          	mov    %eax,0x8(%esp)
     6be:	e8 10 1e 00 00       	call   24d3 <puts_str>
					rect.start.y + LIST_ITEM_OFFSET_Y);
			break;
     6c3:	eb 49                	jmp    70e <drawItem+0x276>
		case T_DIR:
			draw_picture(context, contentRes[FOLDER_ICON_SMALL].pic,
					rect.start.x + LIST_ITEM_OFFSET_X, rect.start.y + LIST_ITEM_OFFSET_Y);
     6c5:	8b 45 30             	mov    0x30(%ebp),%eax
			size = sizeFormat(st.size);
			puts_str(context, size, nameColor, rect.start.x + LIST_ITEM_SIZE,
					rect.start.y + LIST_ITEM_OFFSET_Y);
			break;
		case T_DIR:
			draw_picture(context, contentRes[FOLDER_ICON_SMALL].pic,
     6c8:	8d 50 03             	lea    0x3(%eax),%edx
					rect.start.x + LIST_ITEM_OFFSET_X, rect.start.y + LIST_ITEM_OFFSET_Y);
     6cb:	8b 45 2c             	mov    0x2c(%ebp),%eax
			size = sizeFormat(st.size);
			puts_str(context, size, nameColor, rect.start.x + LIST_ITEM_SIZE,
					rect.start.y + LIST_ITEM_OFFSET_Y);
			break;
		case T_DIR:
			draw_picture(context, contentRes[FOLDER_ICON_SMALL].pic,
     6ce:	83 c0 08             	add    $0x8,%eax
     6d1:	89 54 24 1c          	mov    %edx,0x1c(%esp)
     6d5:	89 44 24 18          	mov    %eax,0x18(%esp)
     6d9:	a1 44 a4 00 00       	mov    0xa444,%eax
     6de:	89 44 24 0c          	mov    %eax,0xc(%esp)
     6e2:	a1 48 a4 00 00       	mov    0xa448,%eax
     6e7:	89 44 24 10          	mov    %eax,0x10(%esp)
     6eb:	a1 4c a4 00 00       	mov    0xa44c,%eax
     6f0:	89 44 24 14          	mov    %eax,0x14(%esp)
     6f4:	8b 45 08             	mov    0x8(%ebp),%eax
     6f7:	89 04 24             	mov    %eax,(%esp)
     6fa:	8b 45 0c             	mov    0xc(%ebp),%eax
     6fd:	89 44 24 04          	mov    %eax,0x4(%esp)
     701:	8b 45 10             	mov    0x10(%ebp),%eax
     704:	89 44 24 08          	mov    %eax,0x8(%esp)
     708:	e8 86 1e 00 00       	call   2593 <draw_picture>
					rect.start.x + LIST_ITEM_OFFSET_X, rect.start.y + LIST_ITEM_OFFSET_Y);
			break;
     70d:	90                   	nop
		}
		puts_str(context, name, nameColor, rect.start.x + LIST_ITEM_FILENAME,
				rect.start.y + LIST_ITEM_OFFSET_Y);
     70e:	8b 45 30             	mov    0x30(%ebp),%eax
		case T_DIR:
			draw_picture(context, contentRes[FOLDER_ICON_SMALL].pic,
					rect.start.x + LIST_ITEM_OFFSET_X, rect.start.y + LIST_ITEM_OFFSET_Y);
			break;
		}
		puts_str(context, name, nameColor, rect.start.x + LIST_ITEM_FILENAME,
     711:	8d 48 03             	lea    0x3(%eax),%ecx
     714:	8b 45 2c             	mov    0x2c(%ebp),%eax
     717:	8d 50 28             	lea    0x28(%eax),%edx
     71a:	0f b7 45 f6          	movzwl -0xa(%ebp),%eax
     71e:	89 4c 24 18          	mov    %ecx,0x18(%esp)
     722:	89 54 24 14          	mov    %edx,0x14(%esp)
     726:	89 44 24 10          	mov    %eax,0x10(%esp)
     72a:	8b 45 14             	mov    0x14(%ebp),%eax
     72d:	89 44 24 0c          	mov    %eax,0xc(%esp)
     731:	8b 45 08             	mov    0x8(%ebp),%eax
     734:	89 04 24             	mov    %eax,(%esp)
     737:	8b 45 0c             	mov    0xc(%ebp),%eax
     73a:	89 44 24 04          	mov    %eax,0x4(%esp)
     73e:	8b 45 10             	mov    0x10(%ebp),%eax
     741:	89 44 24 08          	mov    %eax,0x8(%esp)
     745:	e8 89 1d 00 00       	call   24d3 <puts_str>
				rect.start.y + LIST_ITEM_OFFSET_Y);
	}
}
     74a:	83 c4 34             	add    $0x34,%esp
     74d:	5b                   	pop    %ebx
     74e:	5d                   	pop    %ebp
     74f:	c3                   	ret    

00000750 <sizeFormat>:

char *sizeFormat(uint size){
     750:	55                   	push   %ebp
     751:	89 e5                	mov    %esp,%ebp
     753:	53                   	push   %ebx
     754:	83 ec 24             	sub    $0x24,%esp
	char* result = (char *) malloc(12 * sizeof(char));
     757:	c7 04 24 0c 00 00 00 	movl   $0xc,(%esp)
     75e:	e8 fb 39 00 00       	call   415e <malloc>
     763:	89 45 f0             	mov    %eax,-0x10(%ebp)
	int n = 0;
     766:	c7 45 f4 00 00 00 00 	movl   $0x0,-0xc(%ebp)
	if (size > 0x400) 
     76d:	81 7d 08 00 04 00 00 	cmpl   $0x400,0x8(%ebp)
     774:	0f 86 8b 00 00 00    	jbe    805 <sizeFormat+0xb5>
	{
		size = size / (0x400);
     77a:	8b 45 08             	mov    0x8(%ebp),%eax
     77d:	c1 e8 0a             	shr    $0xa,%eax
     780:	89 45 08             	mov    %eax,0x8(%ebp)
		do{
			result[n++] = (size % 10) + '0';
     783:	8b 45 f4             	mov    -0xc(%ebp),%eax
     786:	8d 50 01             	lea    0x1(%eax),%edx
     789:	89 55 f4             	mov    %edx,-0xc(%ebp)
     78c:	89 c2                	mov    %eax,%edx
     78e:	8b 45 f0             	mov    -0x10(%ebp),%eax
     791:	8d 1c 02             	lea    (%edx,%eax,1),%ebx
     794:	8b 4d 08             	mov    0x8(%ebp),%ecx
     797:	ba cd cc cc cc       	mov    $0xcccccccd,%edx
     79c:	89 c8                	mov    %ecx,%eax
     79e:	f7 e2                	mul    %edx
     7a0:	c1 ea 03             	shr    $0x3,%edx
     7a3:	89 d0                	mov    %edx,%eax
     7a5:	c1 e0 02             	shl    $0x2,%eax
     7a8:	01 d0                	add    %edx,%eax
     7aa:	01 c0                	add    %eax,%eax
     7ac:	29 c1                	sub    %eax,%ecx
     7ae:	89 ca                	mov    %ecx,%edx
     7b0:	89 d0                	mov    %edx,%eax
     7b2:	83 c0 30             	add    $0x30,%eax
     7b5:	88 03                	mov    %al,(%ebx)
			size /= 10;
     7b7:	8b 45 08             	mov    0x8(%ebp),%eax
     7ba:	ba cd cc cc cc       	mov    $0xcccccccd,%edx
     7bf:	f7 e2                	mul    %edx
     7c1:	89 d0                	mov    %edx,%eax
     7c3:	c1 e8 03             	shr    $0x3,%eax
     7c6:	89 45 08             	mov    %eax,0x8(%ebp)
		}while (size!=0);
     7c9:	83 7d 08 00          	cmpl   $0x0,0x8(%ebp)
     7cd:	75 b4                	jne    783 <sizeFormat+0x33>
		result[n++] = 'K';
     7cf:	8b 45 f4             	mov    -0xc(%ebp),%eax
     7d2:	8d 50 01             	lea    0x1(%eax),%edx
     7d5:	89 55 f4             	mov    %edx,-0xc(%ebp)
     7d8:	89 c2                	mov    %eax,%edx
     7da:	8b 45 f0             	mov    -0x10(%ebp),%eax
     7dd:	01 d0                	add    %edx,%eax
     7df:	c6 00 4b             	movb   $0x4b,(%eax)
		result[n++] = 'b';
     7e2:	8b 45 f4             	mov    -0xc(%ebp),%eax
     7e5:	8d 50 01             	lea    0x1(%eax),%edx
     7e8:	89 55 f4             	mov    %edx,-0xc(%ebp)
     7eb:	89 c2                	mov    %eax,%edx
     7ed:	8b 45 f0             	mov    -0x10(%ebp),%eax
     7f0:	01 d0                	add    %edx,%eax
     7f2:	c6 00 62             	movb   $0x62,(%eax)
		result[n] = 0;
     7f5:	8b 55 f4             	mov    -0xc(%ebp),%edx
     7f8:	8b 45 f0             	mov    -0x10(%ebp),%eax
     7fb:	01 d0                	add    %edx,%eax
     7fd:	c6 00 00             	movb   $0x0,(%eax)
     800:	e9 a3 00 00 00       	jmp    8a8 <sizeFormat+0x158>
	}
	else 
	{
		do{
			result[n++] = (size % 10) + '0';
     805:	8b 45 f4             	mov    -0xc(%ebp),%eax
     808:	8d 50 01             	lea    0x1(%eax),%edx
     80b:	89 55 f4             	mov    %edx,-0xc(%ebp)
     80e:	89 c2                	mov    %eax,%edx
     810:	8b 45 f0             	mov    -0x10(%ebp),%eax
     813:	8d 1c 02             	lea    (%edx,%eax,1),%ebx
     816:	8b 4d 08             	mov    0x8(%ebp),%ecx
     819:	ba cd cc cc cc       	mov    $0xcccccccd,%edx
     81e:	89 c8                	mov    %ecx,%eax
     820:	f7 e2                	mul    %edx
     822:	c1 ea 03             	shr    $0x3,%edx
     825:	89 d0                	mov    %edx,%eax
     827:	c1 e0 02             	shl    $0x2,%eax
     82a:	01 d0                	add    %edx,%eax
     82c:	01 c0                	add    %eax,%eax
     82e:	29 c1                	sub    %eax,%ecx
     830:	89 ca                	mov    %ecx,%edx
     832:	89 d0                	mov    %edx,%eax
     834:	83 c0 30             	add    $0x30,%eax
     837:	88 03                	mov    %al,(%ebx)
			size /= 10;
     839:	8b 45 08             	mov    0x8(%ebp),%eax
     83c:	ba cd cc cc cc       	mov    $0xcccccccd,%edx
     841:	f7 e2                	mul    %edx
     843:	89 d0                	mov    %edx,%eax
     845:	c1 e8 03             	shr    $0x3,%eax
     848:	89 45 08             	mov    %eax,0x8(%ebp)
		}while (size!=0);
     84b:	83 7d 08 00          	cmpl   $0x0,0x8(%ebp)
     84f:	75 b4                	jne    805 <sizeFormat+0xb5>
		result[n++] = 'b';
     851:	8b 45 f4             	mov    -0xc(%ebp),%eax
     854:	8d 50 01             	lea    0x1(%eax),%edx
     857:	89 55 f4             	mov    %edx,-0xc(%ebp)
     85a:	89 c2                	mov    %eax,%edx
     85c:	8b 45 f0             	mov    -0x10(%ebp),%eax
     85f:	01 d0                	add    %edx,%eax
     861:	c6 00 62             	movb   $0x62,(%eax)
		result[n++] = 'y';
     864:	8b 45 f4             	mov    -0xc(%ebp),%eax
     867:	8d 50 01             	lea    0x1(%eax),%edx
     86a:	89 55 f4             	mov    %edx,-0xc(%ebp)
     86d:	89 c2                	mov    %eax,%edx
     86f:	8b 45 f0             	mov    -0x10(%ebp),%eax
     872:	01 d0                	add    %edx,%eax
     874:	c6 00 79             	movb   $0x79,(%eax)
		result[n++] = 't';
     877:	8b 45 f4             	mov    -0xc(%ebp),%eax
     87a:	8d 50 01             	lea    0x1(%eax),%edx
     87d:	89 55 f4             	mov    %edx,-0xc(%ebp)
     880:	89 c2                	mov    %eax,%edx
     882:	8b 45 f0             	mov    -0x10(%ebp),%eax
     885:	01 d0                	add    %edx,%eax
     887:	c6 00 74             	movb   $0x74,(%eax)
		result[n++] = 'e';
     88a:	8b 45 f4             	mov    -0xc(%ebp),%eax
     88d:	8d 50 01             	lea    0x1(%eax),%edx
     890:	89 55 f4             	mov    %edx,-0xc(%ebp)
     893:	89 c2                	mov    %eax,%edx
     895:	8b 45 f0             	mov    -0x10(%ebp),%eax
     898:	01 d0                	add    %edx,%eax
     89a:	c6 00 65             	movb   $0x65,(%eax)
		result[n] = 0;
     89d:	8b 55 f4             	mov    -0xc(%ebp),%edx
     8a0:	8b 45 f0             	mov    -0x10(%ebp),%eax
     8a3:	01 d0                	add    %edx,%eax
     8a5:	c6 00 00             	movb   $0x0,(%eax)
	}
	return result;
     8a8:	8b 45 f0             	mov    -0x10(%ebp),%eax
}
     8ab:	83 c4 24             	add    $0x24,%esp
     8ae:	5b                   	pop    %ebx
     8af:	5d                   	pop    %ebp
     8b0:	c3                   	ret    

000008b1 <drawFinderWnd>:
				- (BUTTON_HEIGHT + 3) }, { "up.bmp", 2 * BUTTON_WIDTH + 100,
		TOPBAR_HEIGHT + TOOLSBAR_HEIGHT - (BUTTON_HEIGHT + 3) }, { "trash.bmp",
		3 * BUTTON_WIDTH + 110, TOPBAR_HEIGHT + TOOLSBAR_HEIGHT
				- (BUTTON_HEIGHT + 3) } };

void drawFinderWnd(Context context) {
     8b1:	55                   	push   %ebp
     8b2:	89 e5                	mov    %esp,%ebp
     8b4:	83 ec 28             	sub    $0x28,%esp
	fill_rect(context, 0, 0, context.width, context.height, 0xFFFF);
     8b7:	8b 45 10             	mov    0x10(%ebp),%eax
     8ba:	89 c2                	mov    %eax,%edx
     8bc:	8b 45 0c             	mov    0xc(%ebp),%eax
     8bf:	c7 44 24 1c ff ff 00 	movl   $0xffff,0x1c(%esp)
     8c6:	00 
     8c7:	89 54 24 18          	mov    %edx,0x18(%esp)
     8cb:	89 44 24 14          	mov    %eax,0x14(%esp)
     8cf:	c7 44 24 10 00 00 00 	movl   $0x0,0x10(%esp)
     8d6:	00 
     8d7:	c7 44 24 0c 00 00 00 	movl   $0x0,0xc(%esp)
     8de:	00 
     8df:	8b 45 08             	mov    0x8(%ebp),%eax
     8e2:	89 04 24             	mov    %eax,(%esp)
     8e5:	8b 45 0c             	mov    0xc(%ebp),%eax
     8e8:	89 44 24 04          	mov    %eax,0x4(%esp)
     8ec:	8b 45 10             	mov    0x10(%ebp),%eax
     8ef:	89 44 24 08          	mov    %eax,0x8(%esp)
     8f3:	e8 fc 15 00 00       	call   1ef4 <fill_rect>

	draw_line(context, 0, 0, context.width - 1, 0, BORDERLINE_COLOR);
     8f8:	8b 45 0c             	mov    0xc(%ebp),%eax
     8fb:	83 e8 01             	sub    $0x1,%eax
     8fe:	c7 44 24 1c 00 00 00 	movl   $0x0,0x1c(%esp)
     905:	00 
     906:	c7 44 24 18 00 00 00 	movl   $0x0,0x18(%esp)
     90d:	00 
     90e:	89 44 24 14          	mov    %eax,0x14(%esp)
     912:	c7 44 24 10 00 00 00 	movl   $0x0,0x10(%esp)
     919:	00 
     91a:	c7 44 24 0c 00 00 00 	movl   $0x0,0xc(%esp)
     921:	00 
     922:	8b 45 08             	mov    0x8(%ebp),%eax
     925:	89 04 24             	mov    %eax,(%esp)
     928:	8b 45 0c             	mov    0xc(%ebp),%eax
     92b:	89 44 24 04          	mov    %eax,0x4(%esp)
     92f:	8b 45 10             	mov    0x10(%ebp),%eax
     932:	89 44 24 08          	mov    %eax,0x8(%esp)
     936:	e8 2e 1d 00 00       	call   2669 <draw_line>
	draw_line(context, context.width - 1, 0, context.width - 1,
			context.height - 1, BORDERLINE_COLOR);
     93b:	8b 45 10             	mov    0x10(%ebp),%eax

void drawFinderWnd(Context context) {
	fill_rect(context, 0, 0, context.width, context.height, 0xFFFF);

	draw_line(context, 0, 0, context.width - 1, 0, BORDERLINE_COLOR);
	draw_line(context, context.width - 1, 0, context.width - 1,
     93e:	8d 48 ff             	lea    -0x1(%eax),%ecx
     941:	8b 45 0c             	mov    0xc(%ebp),%eax
     944:	8d 50 ff             	lea    -0x1(%eax),%edx
     947:	8b 45 0c             	mov    0xc(%ebp),%eax
     94a:	83 e8 01             	sub    $0x1,%eax
     94d:	c7 44 24 1c 00 00 00 	movl   $0x0,0x1c(%esp)
     954:	00 
     955:	89 4c 24 18          	mov    %ecx,0x18(%esp)
     959:	89 54 24 14          	mov    %edx,0x14(%esp)
     95d:	c7 44 24 10 00 00 00 	movl   $0x0,0x10(%esp)
     964:	00 
     965:	89 44 24 0c          	mov    %eax,0xc(%esp)
     969:	8b 45 08             	mov    0x8(%ebp),%eax
     96c:	89 04 24             	mov    %eax,(%esp)
     96f:	8b 45 0c             	mov    0xc(%ebp),%eax
     972:	89 44 24 04          	mov    %eax,0x4(%esp)
     976:	8b 45 10             	mov    0x10(%ebp),%eax
     979:	89 44 24 08          	mov    %eax,0x8(%esp)
     97d:	e8 e7 1c 00 00       	call   2669 <draw_line>
			context.height - 1, BORDERLINE_COLOR);
	draw_line(context, 0,
			context.height - 1, context.width - 1, context.height - 1, BORDERLINE_COLOR);
     982:	8b 45 10             	mov    0x10(%ebp),%eax
	fill_rect(context, 0, 0, context.width, context.height, 0xFFFF);

	draw_line(context, 0, 0, context.width - 1, 0, BORDERLINE_COLOR);
	draw_line(context, context.width - 1, 0, context.width - 1,
			context.height - 1, BORDERLINE_COLOR);
	draw_line(context, 0,
     985:	8d 48 ff             	lea    -0x1(%eax),%ecx
			context.height - 1, context.width - 1, context.height - 1, BORDERLINE_COLOR);
     988:	8b 45 0c             	mov    0xc(%ebp),%eax
	fill_rect(context, 0, 0, context.width, context.height, 0xFFFF);

	draw_line(context, 0, 0, context.width - 1, 0, BORDERLINE_COLOR);
	draw_line(context, context.width - 1, 0, context.width - 1,
			context.height - 1, BORDERLINE_COLOR);
	draw_line(context, 0,
     98b:	8d 50 ff             	lea    -0x1(%eax),%edx
			context.height - 1, context.width - 1, context.height - 1, BORDERLINE_COLOR);
     98e:	8b 45 10             	mov    0x10(%ebp),%eax
	fill_rect(context, 0, 0, context.width, context.height, 0xFFFF);

	draw_line(context, 0, 0, context.width - 1, 0, BORDERLINE_COLOR);
	draw_line(context, context.width - 1, 0, context.width - 1,
			context.height - 1, BORDERLINE_COLOR);
	draw_line(context, 0,
     991:	83 e8 01             	sub    $0x1,%eax
     994:	c7 44 24 1c 00 00 00 	movl   $0x0,0x1c(%esp)
     99b:	00 
     99c:	89 4c 24 18          	mov    %ecx,0x18(%esp)
     9a0:	89 54 24 14          	mov    %edx,0x14(%esp)
     9a4:	89 44 24 10          	mov    %eax,0x10(%esp)
     9a8:	c7 44 24 0c 00 00 00 	movl   $0x0,0xc(%esp)
     9af:	00 
     9b0:	8b 45 08             	mov    0x8(%ebp),%eax
     9b3:	89 04 24             	mov    %eax,(%esp)
     9b6:	8b 45 0c             	mov    0xc(%ebp),%eax
     9b9:	89 44 24 04          	mov    %eax,0x4(%esp)
     9bd:	8b 45 10             	mov    0x10(%ebp),%eax
     9c0:	89 44 24 08          	mov    %eax,0x8(%esp)
     9c4:	e8 a0 1c 00 00       	call   2669 <draw_line>
			context.height - 1, context.width - 1, context.height - 1, BORDERLINE_COLOR);
	draw_line(context, 0, context.height - 1, 0, 0, BORDERLINE_COLOR);
     9c9:	8b 45 10             	mov    0x10(%ebp),%eax
     9cc:	83 e8 01             	sub    $0x1,%eax
     9cf:	c7 44 24 1c 00 00 00 	movl   $0x0,0x1c(%esp)
     9d6:	00 
     9d7:	c7 44 24 18 00 00 00 	movl   $0x0,0x18(%esp)
     9de:	00 
     9df:	c7 44 24 14 00 00 00 	movl   $0x0,0x14(%esp)
     9e6:	00 
     9e7:	89 44 24 10          	mov    %eax,0x10(%esp)
     9eb:	c7 44 24 0c 00 00 00 	movl   $0x0,0xc(%esp)
     9f2:	00 
     9f3:	8b 45 08             	mov    0x8(%ebp),%eax
     9f6:	89 04 24             	mov    %eax,(%esp)
     9f9:	8b 45 0c             	mov    0xc(%ebp),%eax
     9fc:	89 44 24 04          	mov    %eax,0x4(%esp)
     a00:	8b 45 10             	mov    0x10(%ebp),%eax
     a03:	89 44 24 08          	mov    %eax,0x8(%esp)
     a07:	e8 5d 1c 00 00       	call   2669 <draw_line>
	fill_rect(context, 1, 1, context.width - 2, TOPBAR_HEIGHT + TOOLSBAR_HEIGHT,
     a0c:	8b 45 0c             	mov    0xc(%ebp),%eax
     a0f:	83 e8 02             	sub    $0x2,%eax
     a12:	c7 44 24 1c 18 c6 00 	movl   $0xc618,0x1c(%esp)
     a19:	00 
     a1a:	c7 44 24 18 46 00 00 	movl   $0x46,0x18(%esp)
     a21:	00 
     a22:	89 44 24 14          	mov    %eax,0x14(%esp)
     a26:	c7 44 24 10 01 00 00 	movl   $0x1,0x10(%esp)
     a2d:	00 
     a2e:	c7 44 24 0c 01 00 00 	movl   $0x1,0xc(%esp)
     a35:	00 
     a36:	8b 45 08             	mov    0x8(%ebp),%eax
     a39:	89 04 24             	mov    %eax,(%esp)
     a3c:	8b 45 0c             	mov    0xc(%ebp),%eax
     a3f:	89 44 24 04          	mov    %eax,0x4(%esp)
     a43:	8b 45 10             	mov    0x10(%ebp),%eax
     a46:	89 44 24 08          	mov    %eax,0x8(%esp)
     a4a:	e8 a5 14 00 00       	call   1ef4 <fill_rect>
			TOOLSBAR_COLOR);
	puts_str(context, "Finder", 0, WINDOW_WIDTH / 2, 3);
     a4f:	c7 44 24 18 03 00 00 	movl   $0x3,0x18(%esp)
     a56:	00 
     a57:	c7 44 24 14 2c 01 00 	movl   $0x12c,0x14(%esp)
     a5e:	00 
     a5f:	c7 44 24 10 00 00 00 	movl   $0x0,0x10(%esp)
     a66:	00 
     a67:	c7 44 24 0c 30 8a 00 	movl   $0x8a30,0xc(%esp)
     a6e:	00 
     a6f:	8b 45 08             	mov    0x8(%ebp),%eax
     a72:	89 04 24             	mov    %eax,(%esp)
     a75:	8b 45 0c             	mov    0xc(%ebp),%eax
     a78:	89 44 24 04          	mov    %eax,0x4(%esp)
     a7c:	8b 45 10             	mov    0x10(%ebp),%eax
     a7f:	89 44 24 08          	mov    %eax,0x8(%esp)
     a83:	e8 4b 1a 00 00       	call   24d3 <puts_str>
	//printf(0, "drawing window\n");
	draw_iconlist(context, wndRes, sizeof(wndRes) / sizeof(ICON));
     a88:	c7 44 24 10 08 00 00 	movl   $0x8,0x10(%esp)
     a8f:	00 
     a90:	c7 44 24 0c 60 a4 00 	movl   $0xa460,0xc(%esp)
     a97:	00 
     a98:	8b 45 08             	mov    0x8(%ebp),%eax
     a9b:	89 04 24             	mov    %eax,(%esp)
     a9e:	8b 45 0c             	mov    0xc(%ebp),%eax
     aa1:	89 44 24 04          	mov    %eax,0x4(%esp)
     aa5:	8b 45 10             	mov    0x10(%ebp),%eax
     aa8:	89 44 24 08          	mov    %eax,0x8(%esp)
     aac:	e8 93 1f 00 00       	call   2a44 <draw_iconlist>


}
     ab1:	c9                   	leave  
     ab2:	c3                   	ret    

00000ab3 <drawFinderContent>:

void drawFinderContent(Context context) {
     ab3:	55                   	push   %ebp
     ab4:	89 e5                	mov    %esp,%ebp
     ab6:	83 ec 58             	sub    $0x58,%esp
	struct fileItem *p;
	//printf(0, "listing contents\n");

	int contentTop = TOPBAR_HEIGHT + TOOLSBAR_HEIGHT;
     ab9:	c7 45 f0 46 00 00 00 	movl   $0x46,-0x10(%ebp)
	if (style == LIST_STYLE) contentTop += TAGBAR_HEIGHT;
     ac0:	a1 64 a3 00 00       	mov    0xa364,%eax
     ac5:	83 f8 02             	cmp    $0x2,%eax
     ac8:	75 04                	jne    ace <drawFinderContent+0x1b>
     aca:	83 45 f0 1c          	addl   $0x1c,-0x10(%ebp)
	fill_rect(context, 1, contentTop, context.width - 2,
			context.height - (TOPBAR_HEIGHT + TOOLSBAR_HEIGHT) - 2, 0xFFFF);
     ace:	8b 45 10             	mov    0x10(%ebp),%eax
     ad1:	83 e8 48             	sub    $0x48,%eax
	struct fileItem *p;
	//printf(0, "listing contents\n");

	int contentTop = TOPBAR_HEIGHT + TOOLSBAR_HEIGHT;
	if (style == LIST_STYLE) contentTop += TAGBAR_HEIGHT;
	fill_rect(context, 1, contentTop, context.width - 2,
     ad4:	89 c1                	mov    %eax,%ecx
     ad6:	8b 45 0c             	mov    0xc(%ebp),%eax
     ad9:	83 e8 02             	sub    $0x2,%eax
     adc:	89 c2                	mov    %eax,%edx
     ade:	8b 45 f0             	mov    -0x10(%ebp),%eax
     ae1:	c7 44 24 1c ff ff 00 	movl   $0xffff,0x1c(%esp)
     ae8:	00 
     ae9:	89 4c 24 18          	mov    %ecx,0x18(%esp)
     aed:	89 54 24 14          	mov    %edx,0x14(%esp)
     af1:	89 44 24 10          	mov    %eax,0x10(%esp)
     af5:	c7 44 24 0c 01 00 00 	movl   $0x1,0xc(%esp)
     afc:	00 
     afd:	8b 45 08             	mov    0x8(%ebp),%eax
     b00:	89 04 24             	mov    %eax,(%esp)
     b03:	8b 45 0c             	mov    0xc(%ebp),%eax
     b06:	89 44 24 04          	mov    %eax,0x4(%esp)
     b0a:	8b 45 10             	mov    0x10(%ebp),%eax
     b0d:	89 44 24 08          	mov    %eax,0x8(%esp)
     b11:	e8 de 13 00 00       	call   1ef4 <fill_rect>
			context.height - (TOPBAR_HEIGHT + TOOLSBAR_HEIGHT) - 2, 0xFFFF);
	draw_line(context, 0,
				context.height - 1, context.width - 1, context.height - 1, BORDERLINE_COLOR);
     b16:	8b 45 10             	mov    0x10(%ebp),%eax

	int contentTop = TOPBAR_HEIGHT + TOOLSBAR_HEIGHT;
	if (style == LIST_STYLE) contentTop += TAGBAR_HEIGHT;
	fill_rect(context, 1, contentTop, context.width - 2,
			context.height - (TOPBAR_HEIGHT + TOOLSBAR_HEIGHT) - 2, 0xFFFF);
	draw_line(context, 0,
     b19:	8d 48 ff             	lea    -0x1(%eax),%ecx
				context.height - 1, context.width - 1, context.height - 1, BORDERLINE_COLOR);
     b1c:	8b 45 0c             	mov    0xc(%ebp),%eax

	int contentTop = TOPBAR_HEIGHT + TOOLSBAR_HEIGHT;
	if (style == LIST_STYLE) contentTop += TAGBAR_HEIGHT;
	fill_rect(context, 1, contentTop, context.width - 2,
			context.height - (TOPBAR_HEIGHT + TOOLSBAR_HEIGHT) - 2, 0xFFFF);
	draw_line(context, 0,
     b1f:	8d 50 ff             	lea    -0x1(%eax),%edx
				context.height - 1, context.width - 1, context.height - 1, BORDERLINE_COLOR);
     b22:	8b 45 10             	mov    0x10(%ebp),%eax

	int contentTop = TOPBAR_HEIGHT + TOOLSBAR_HEIGHT;
	if (style == LIST_STYLE) contentTop += TAGBAR_HEIGHT;
	fill_rect(context, 1, contentTop, context.width - 2,
			context.height - (TOPBAR_HEIGHT + TOOLSBAR_HEIGHT) - 2, 0xFFFF);
	draw_line(context, 0,
     b25:	83 e8 01             	sub    $0x1,%eax
     b28:	c7 44 24 1c 00 00 00 	movl   $0x0,0x1c(%esp)
     b2f:	00 
     b30:	89 4c 24 18          	mov    %ecx,0x18(%esp)
     b34:	89 54 24 14          	mov    %edx,0x14(%esp)
     b38:	89 44 24 10          	mov    %eax,0x10(%esp)
     b3c:	c7 44 24 0c 00 00 00 	movl   $0x0,0xc(%esp)
     b43:	00 
     b44:	8b 45 08             	mov    0x8(%ebp),%eax
     b47:	89 04 24             	mov    %eax,(%esp)
     b4a:	8b 45 0c             	mov    0xc(%ebp),%eax
     b4d:	89 44 24 04          	mov    %eax,0x4(%esp)
     b51:	8b 45 10             	mov    0x10(%ebp),%eax
     b54:	89 44 24 08          	mov    %eax,0x8(%esp)
     b58:	e8 0c 1b 00 00       	call   2669 <draw_line>
				context.height - 1, context.width - 1, context.height - 1, BORDERLINE_COLOR);

	//printf(0, "listing complete!\n");
	//printItemList();
	p = fileItemList;
     b5d:	a1 00 d7 00 00       	mov    0xd700,%eax
     b62:	89 45 f4             	mov    %eax,-0xc(%ebp)
	itemCounter = 0;
     b65:	c7 05 04 d7 00 00 00 	movl   $0x0,0xd704
     b6c:	00 00 00 
	while (p != 0) {
     b6f:	eb 7a                	jmp    beb <drawFinderContent+0x138>
		//printf(0, "draw item\n");
		drawItem(context, p->name, p->st, p->pos, p->chosen);
     b71:	8b 45 f4             	mov    -0xc(%ebp),%eax
     b74:	8b 40 28             	mov    0x28(%eax),%eax
     b77:	8b 55 f4             	mov    -0xc(%ebp),%edx
     b7a:	8b 52 14             	mov    0x14(%edx),%edx
     b7d:	89 44 24 34          	mov    %eax,0x34(%esp)
     b81:	8b 45 f4             	mov    -0xc(%ebp),%eax
     b84:	8b 48 18             	mov    0x18(%eax),%ecx
     b87:	89 4c 24 24          	mov    %ecx,0x24(%esp)
     b8b:	8b 48 1c             	mov    0x1c(%eax),%ecx
     b8e:	89 4c 24 28          	mov    %ecx,0x28(%esp)
     b92:	8b 48 20             	mov    0x20(%eax),%ecx
     b95:	89 4c 24 2c          	mov    %ecx,0x2c(%esp)
     b99:	8b 40 24             	mov    0x24(%eax),%eax
     b9c:	89 44 24 30          	mov    %eax,0x30(%esp)
     ba0:	8b 45 f4             	mov    -0xc(%ebp),%eax
     ba3:	8b 08                	mov    (%eax),%ecx
     ba5:	89 4c 24 10          	mov    %ecx,0x10(%esp)
     ba9:	8b 48 04             	mov    0x4(%eax),%ecx
     bac:	89 4c 24 14          	mov    %ecx,0x14(%esp)
     bb0:	8b 48 08             	mov    0x8(%eax),%ecx
     bb3:	89 4c 24 18          	mov    %ecx,0x18(%esp)
     bb7:	8b 48 0c             	mov    0xc(%eax),%ecx
     bba:	89 4c 24 1c          	mov    %ecx,0x1c(%esp)
     bbe:	8b 40 10             	mov    0x10(%eax),%eax
     bc1:	89 44 24 20          	mov    %eax,0x20(%esp)
     bc5:	89 54 24 0c          	mov    %edx,0xc(%esp)
     bc9:	8b 45 08             	mov    0x8(%ebp),%eax
     bcc:	89 04 24             	mov    %eax,(%esp)
     bcf:	8b 45 0c             	mov    0xc(%ebp),%eax
     bd2:	89 44 24 04          	mov    %eax,0x4(%esp)
     bd6:	8b 45 10             	mov    0x10(%ebp),%eax
     bd9:	89 44 24 08          	mov    %eax,0x8(%esp)
     bdd:	e8 b6 f8 ff ff       	call   498 <drawItem>
		p = p->next;
     be2:	8b 45 f4             	mov    -0xc(%ebp),%eax
     be5:	8b 40 2c             	mov    0x2c(%eax),%eax
     be8:	89 45 f4             	mov    %eax,-0xc(%ebp)

	//printf(0, "listing complete!\n");
	//printItemList();
	p = fileItemList;
	itemCounter = 0;
	while (p != 0) {
     beb:	83 7d f4 00          	cmpl   $0x0,-0xc(%ebp)
     bef:	75 80                	jne    b71 <drawFinderContent+0xbe>
		//printf(0, "draw item\n");
		drawItem(context, p->name, p->st, p->pos, p->chosen);
		p = p->next;
	}

	if (style == LIST_STYLE)
     bf1:	a1 64 a3 00 00       	mov    0xa364,%eax
     bf6:	83 f8 02             	cmp    $0x2,%eax
     bf9:	0f 85 39 01 00 00    	jne    d38 <drawFinderContent+0x285>
		{
			fill_rect(context, 1, TOPBAR_HEIGHT + TOOLSBAR_HEIGHT + 1, LIST_ITEM_FILENAME - 2, TAGBAR_HEIGHT, TAGBAR_COLOR);
     bff:	c7 44 24 1c 14 a5 00 	movl   $0xa514,0x1c(%esp)
     c06:	00 
     c07:	c7 44 24 18 1c 00 00 	movl   $0x1c,0x18(%esp)
     c0e:	00 
     c0f:	c7 44 24 14 26 00 00 	movl   $0x26,0x14(%esp)
     c16:	00 
     c17:	c7 44 24 10 47 00 00 	movl   $0x47,0x10(%esp)
     c1e:	00 
     c1f:	c7 44 24 0c 01 00 00 	movl   $0x1,0xc(%esp)
     c26:	00 
     c27:	8b 45 08             	mov    0x8(%ebp),%eax
     c2a:	89 04 24             	mov    %eax,(%esp)
     c2d:	8b 45 0c             	mov    0xc(%ebp),%eax
     c30:	89 44 24 04          	mov    %eax,0x4(%esp)
     c34:	8b 45 10             	mov    0x10(%ebp),%eax
     c37:	89 44 24 08          	mov    %eax,0x8(%esp)
     c3b:	e8 b4 12 00 00       	call   1ef4 <fill_rect>
			fill_rect(context, LIST_ITEM_FILENAME, TOPBAR_HEIGHT + TOOLSBAR_HEIGHT + 1, LIST_ITEM_SIZE - LIST_ITEM_FILENAME - 1, TAGBAR_HEIGHT, TAGBAR_COLOR);
     c40:	c7 44 24 1c 14 a5 00 	movl   $0xa514,0x1c(%esp)
     c47:	00 
     c48:	c7 44 24 18 1c 00 00 	movl   $0x1c,0x18(%esp)
     c4f:	00 
     c50:	c7 44 24 14 9f 00 00 	movl   $0x9f,0x14(%esp)
     c57:	00 
     c58:	c7 44 24 10 47 00 00 	movl   $0x47,0x10(%esp)
     c5f:	00 
     c60:	c7 44 24 0c 28 00 00 	movl   $0x28,0xc(%esp)
     c67:	00 
     c68:	8b 45 08             	mov    0x8(%ebp),%eax
     c6b:	89 04 24             	mov    %eax,(%esp)
     c6e:	8b 45 0c             	mov    0xc(%ebp),%eax
     c71:	89 44 24 04          	mov    %eax,0x4(%esp)
     c75:	8b 45 10             	mov    0x10(%ebp),%eax
     c78:	89 44 24 08          	mov    %eax,0x8(%esp)
     c7c:	e8 73 12 00 00       	call   1ef4 <fill_rect>
			fill_rect(context, LIST_ITEM_SIZE, TOPBAR_HEIGHT + TOOLSBAR_HEIGHT + 1, context.width - LIST_ITEM_SIZE - 1, TAGBAR_HEIGHT, TAGBAR_COLOR);
     c81:	8b 45 0c             	mov    0xc(%ebp),%eax
     c84:	2d c9 00 00 00       	sub    $0xc9,%eax
     c89:	c7 44 24 1c 14 a5 00 	movl   $0xa514,0x1c(%esp)
     c90:	00 
     c91:	c7 44 24 18 1c 00 00 	movl   $0x1c,0x18(%esp)
     c98:	00 
     c99:	89 44 24 14          	mov    %eax,0x14(%esp)
     c9d:	c7 44 24 10 47 00 00 	movl   $0x47,0x10(%esp)
     ca4:	00 
     ca5:	c7 44 24 0c c8 00 00 	movl   $0xc8,0xc(%esp)
     cac:	00 
     cad:	8b 45 08             	mov    0x8(%ebp),%eax
     cb0:	89 04 24             	mov    %eax,(%esp)
     cb3:	8b 45 0c             	mov    0xc(%ebp),%eax
     cb6:	89 44 24 04          	mov    %eax,0x4(%esp)
     cba:	8b 45 10             	mov    0x10(%ebp),%eax
     cbd:	89 44 24 08          	mov    %eax,0x8(%esp)
     cc1:	e8 2e 12 00 00       	call   1ef4 <fill_rect>
			puts_str(context, "Name", 0, LIST_ITEM_FILENAME + 3, TOPBAR_HEIGHT + TOOLSBAR_HEIGHT + TAGBAR_HEIGHT - 18);
     cc6:	c7 44 24 18 50 00 00 	movl   $0x50,0x18(%esp)
     ccd:	00 
     cce:	c7 44 24 14 2b 00 00 	movl   $0x2b,0x14(%esp)
     cd5:	00 
     cd6:	c7 44 24 10 00 00 00 	movl   $0x0,0x10(%esp)
     cdd:	00 
     cde:	c7 44 24 0c 37 8a 00 	movl   $0x8a37,0xc(%esp)
     ce5:	00 
     ce6:	8b 45 08             	mov    0x8(%ebp),%eax
     ce9:	89 04 24             	mov    %eax,(%esp)
     cec:	8b 45 0c             	mov    0xc(%ebp),%eax
     cef:	89 44 24 04          	mov    %eax,0x4(%esp)
     cf3:	8b 45 10             	mov    0x10(%ebp),%eax
     cf6:	89 44 24 08          	mov    %eax,0x8(%esp)
     cfa:	e8 d4 17 00 00       	call   24d3 <puts_str>
			puts_str(context, "Size", 0, LIST_ITEM_SIZE + 3, TOPBAR_HEIGHT + TOOLSBAR_HEIGHT + TAGBAR_HEIGHT - 18);
     cff:	c7 44 24 18 50 00 00 	movl   $0x50,0x18(%esp)
     d06:	00 
     d07:	c7 44 24 14 cb 00 00 	movl   $0xcb,0x14(%esp)
     d0e:	00 
     d0f:	c7 44 24 10 00 00 00 	movl   $0x0,0x10(%esp)
     d16:	00 
     d17:	c7 44 24 0c 3c 8a 00 	movl   $0x8a3c,0xc(%esp)
     d1e:	00 
     d1f:	8b 45 08             	mov    0x8(%ebp),%eax
     d22:	89 04 24             	mov    %eax,(%esp)
     d25:	8b 45 0c             	mov    0xc(%ebp),%eax
     d28:	89 44 24 04          	mov    %eax,0x4(%esp)
     d2c:	8b 45 10             	mov    0x10(%ebp),%eax
     d2f:	89 44 24 08          	mov    %eax,0x8(%esp)
     d33:	e8 9b 17 00 00       	call   24d3 <puts_str>
		}
}
     d38:	c9                   	leave  
     d39:	c3                   	ret    

00000d3a <int2str>:

char * int2str(int i)
{
     d3a:	55                   	push   %ebp
     d3b:	89 e5                	mov    %esp,%ebp
     d3d:	53                   	push   %ebx
     d3e:	83 ec 24             	sub    $0x24,%esp
	int j;
	int n = 0;
     d41:	c7 45 f0 00 00 00 00 	movl   $0x0,-0x10(%ebp)
	char *result = (char *)malloc(4*sizeof(char));
     d48:	c7 04 24 04 00 00 00 	movl   $0x4,(%esp)
     d4f:	e8 0a 34 00 00       	call   415e <malloc>
     d54:	89 45 ec             	mov    %eax,-0x14(%ebp)
	char *temp = (char *)malloc(4*sizeof(char));
     d57:	c7 04 24 04 00 00 00 	movl   $0x4,(%esp)
     d5e:	e8 fb 33 00 00       	call   415e <malloc>
     d63:	89 45 e8             	mov    %eax,-0x18(%ebp)
	do{
		result[n++] = (i % 10) + '0';
     d66:	8b 45 f0             	mov    -0x10(%ebp),%eax
     d69:	8d 50 01             	lea    0x1(%eax),%edx
     d6c:	89 55 f0             	mov    %edx,-0x10(%ebp)
     d6f:	89 c2                	mov    %eax,%edx
     d71:	8b 45 ec             	mov    -0x14(%ebp),%eax
     d74:	8d 1c 02             	lea    (%edx,%eax,1),%ebx
     d77:	8b 4d 08             	mov    0x8(%ebp),%ecx
     d7a:	ba 67 66 66 66       	mov    $0x66666667,%edx
     d7f:	89 c8                	mov    %ecx,%eax
     d81:	f7 ea                	imul   %edx
     d83:	c1 fa 02             	sar    $0x2,%edx
     d86:	89 c8                	mov    %ecx,%eax
     d88:	c1 f8 1f             	sar    $0x1f,%eax
     d8b:	29 c2                	sub    %eax,%edx
     d8d:	89 d0                	mov    %edx,%eax
     d8f:	c1 e0 02             	shl    $0x2,%eax
     d92:	01 d0                	add    %edx,%eax
     d94:	01 c0                	add    %eax,%eax
     d96:	29 c1                	sub    %eax,%ecx
     d98:	89 ca                	mov    %ecx,%edx
     d9a:	89 d0                	mov    %edx,%eax
     d9c:	83 c0 30             	add    $0x30,%eax
     d9f:	88 03                	mov    %al,(%ebx)
		i /= 10;
     da1:	8b 4d 08             	mov    0x8(%ebp),%ecx
     da4:	ba 67 66 66 66       	mov    $0x66666667,%edx
     da9:	89 c8                	mov    %ecx,%eax
     dab:	f7 ea                	imul   %edx
     dad:	c1 fa 02             	sar    $0x2,%edx
     db0:	89 c8                	mov    %ecx,%eax
     db2:	c1 f8 1f             	sar    $0x1f,%eax
     db5:	29 c2                	sub    %eax,%edx
     db7:	89 d0                	mov    %edx,%eax
     db9:	89 45 08             	mov    %eax,0x8(%ebp)
	}while (i!=0);
     dbc:	83 7d 08 00          	cmpl   $0x0,0x8(%ebp)
     dc0:	75 a4                	jne    d66 <int2str+0x2c>
	result[n] = 0;
     dc2:	8b 55 f0             	mov    -0x10(%ebp),%edx
     dc5:	8b 45 ec             	mov    -0x14(%ebp),%eax
     dc8:	01 d0                	add    %edx,%eax
     dca:	c6 00 00             	movb   $0x0,(%eax)

	for (j = 0; j < n; j++)
     dcd:	c7 45 f4 00 00 00 00 	movl   $0x0,-0xc(%ebp)
     dd4:	eb 21                	jmp    df7 <int2str+0xbd>
	{
		temp[j] = result[n-1-j];
     dd6:	8b 55 f4             	mov    -0xc(%ebp),%edx
     dd9:	8b 45 e8             	mov    -0x18(%ebp),%eax
     ddc:	01 c2                	add    %eax,%edx
     dde:	8b 45 f0             	mov    -0x10(%ebp),%eax
     de1:	83 e8 01             	sub    $0x1,%eax
     de4:	2b 45 f4             	sub    -0xc(%ebp),%eax
     de7:	89 c1                	mov    %eax,%ecx
     de9:	8b 45 ec             	mov    -0x14(%ebp),%eax
     dec:	01 c8                	add    %ecx,%eax
     dee:	0f b6 00             	movzbl (%eax),%eax
     df1:	88 02                	mov    %al,(%edx)
		result[n++] = (i % 10) + '0';
		i /= 10;
	}while (i!=0);
	result[n] = 0;

	for (j = 0; j < n; j++)
     df3:	83 45 f4 01          	addl   $0x1,-0xc(%ebp)
     df7:	8b 45 f4             	mov    -0xc(%ebp),%eax
     dfa:	3b 45 f0             	cmp    -0x10(%ebp),%eax
     dfd:	7c d7                	jl     dd6 <int2str+0x9c>
	{
		temp[j] = result[n-1-j];
	}
	temp[n] = 0;
     dff:	8b 55 f0             	mov    -0x10(%ebp),%edx
     e02:	8b 45 e8             	mov    -0x18(%ebp),%eax
     e05:	01 d0                	add    %edx,%eax
     e07:	c6 00 00             	movb   $0x0,(%eax)
	free(result);
     e0a:	8b 45 ec             	mov    -0x14(%ebp),%eax
     e0d:	89 04 24             	mov    %eax,(%esp)
     e10:	e8 10 32 00 00       	call   4025 <free>
	return temp;
     e15:	8b 45 e8             	mov    -0x18(%ebp),%eax
}
     e18:	83 c4 24             	add    $0x24,%esp
     e1b:	5b                   	pop    %ebx
     e1c:	5d                   	pop    %ebp
     e1d:	c3                   	ret    

00000e1e <printItemList>:

void printItemList() {
     e1e:	55                   	push   %ebp
     e1f:	89 e5                	mov    %esp,%ebp
     e21:	83 ec 28             	sub    $0x28,%esp
	struct fileItem *p;
	p = fileItemList;
     e24:	a1 00 d7 00 00       	mov    0xd700,%eax
     e29:	89 45 f4             	mov    %eax,-0xc(%ebp)
	while (p != 0) {
     e2c:	eb 27                	jmp    e55 <printItemList+0x37>
		printf(0, "%s\n", p->name);
     e2e:	8b 45 f4             	mov    -0xc(%ebp),%eax
     e31:	8b 40 14             	mov    0x14(%eax),%eax
     e34:	89 44 24 08          	mov    %eax,0x8(%esp)
     e38:	c7 44 24 04 41 8a 00 	movl   $0x8a41,0x4(%esp)
     e3f:	00 
     e40:	c7 04 24 00 00 00 00 	movl   $0x0,(%esp)
     e47:	e8 26 30 00 00       	call   3e72 <printf>
		p = p->next;
     e4c:	8b 45 f4             	mov    -0xc(%ebp),%eax
     e4f:	8b 40 2c             	mov    0x2c(%eax),%eax
     e52:	89 45 f4             	mov    %eax,-0xc(%ebp)
}

void printItemList() {
	struct fileItem *p;
	p = fileItemList;
	while (p != 0) {
     e55:	83 7d f4 00          	cmpl   $0x0,-0xc(%ebp)
     e59:	75 d3                	jne    e2e <printItemList+0x10>
		printf(0, "%s\n", p->name);
		p = p->next;
	}
}
     e5b:	c9                   	leave  
     e5c:	c3                   	ret    

00000e5d <getPos>:

Rect getPos(Context context, int n) {
     e5d:	55                   	push   %ebp
     e5e:	89 e5                	mov    %esp,%ebp
     e60:	83 ec 48             	sub    $0x48,%esp
	if (style == ICON_STYLE) {
     e63:	a1 64 a3 00 00       	mov    0xa364,%eax
     e68:	83 f8 01             	cmp    $0x1,%eax
     e6b:	75 78                	jne    ee5 <getPos+0x88>
		int m = context.width / (ICON_ITEM_WIDTH + ICON_ITEM_GAP_X);
     e6d:	8b 4d 10             	mov    0x10(%ebp),%ecx
     e70:	ba 7f e0 07 7e       	mov    $0x7e07e07f,%edx
     e75:	89 c8                	mov    %ecx,%eax
     e77:	f7 ea                	imul   %edx
     e79:	c1 fa 06             	sar    $0x6,%edx
     e7c:	89 c8                	mov    %ecx,%eax
     e7e:	c1 f8 1f             	sar    $0x1f,%eax
     e81:	29 c2                	sub    %eax,%edx
     e83:	89 d0                	mov    %edx,%eax
     e85:	89 45 f4             	mov    %eax,-0xc(%ebp)
		int r = n / m;
     e88:	8b 45 18             	mov    0x18(%ebp),%eax
     e8b:	99                   	cltd   
     e8c:	f7 7d f4             	idivl  -0xc(%ebp)
     e8f:	89 45 f0             	mov    %eax,-0x10(%ebp)
		int c = n % m;
     e92:	8b 45 18             	mov    0x18(%ebp),%eax
     e95:	99                   	cltd   
     e96:	f7 7d f4             	idivl  -0xc(%ebp)
     e99:	89 55 ec             	mov    %edx,-0x14(%ebp)
		int y_top = r * (ICON_ITEM_HEIGHT + ICON_ITEM_GAP_Y)+ TOPBAR_HEIGHT + TOOLSBAR_HEIGHT + ICON_ITEM_GAP_Y;
     e9c:	8b 45 f0             	mov    -0x10(%ebp),%eax
     e9f:	6b c0 73             	imul   $0x73,%eax,%eax
     ea2:	83 c0 5a             	add    $0x5a,%eax
     ea5:	89 45 e8             	mov    %eax,-0x18(%ebp)
		int x_left = c * (ICON_ITEM_WIDTH + ICON_ITEM_GAP_X);
     ea8:	8b 45 ec             	mov    -0x14(%ebp),%eax
     eab:	01 c0                	add    %eax,%eax
     ead:	89 c2                	mov    %eax,%edx
     eaf:	c1 e2 06             	shl    $0x6,%edx
     eb2:	01 d0                	add    %edx,%eax
     eb4:	89 45 e4             	mov    %eax,-0x1c(%ebp)
		return initRect(x_left, y_top, ICON_ITEM_WIDTH,
     eb7:	8b 45 08             	mov    0x8(%ebp),%eax
     eba:	c7 44 24 10 5f 00 00 	movl   $0x5f,0x10(%esp)
     ec1:	00 
     ec2:	c7 44 24 0c 64 00 00 	movl   $0x64,0xc(%esp)
     ec9:	00 
     eca:	8b 55 e8             	mov    -0x18(%ebp),%edx
     ecd:	89 54 24 08          	mov    %edx,0x8(%esp)
     ed1:	8b 55 e4             	mov    -0x1c(%ebp),%edx
     ed4:	89 54 24 04          	mov    %edx,0x4(%esp)
     ed8:	89 04 24             	mov    %eax,(%esp)
     edb:	e8 5e 24 00 00       	call   333e <initRect>
     ee0:	83 ec 04             	sub    $0x4,%esp
     ee3:	eb 36                	jmp    f1b <getPos+0xbe>
				ICON_ITEM_HEIGHT);
	} else {
		return initRect(0, TOPBAR_HEIGHT + TOOLSBAR_HEIGHT + TAGBAR_HEIGHT + n * (LIST_ITEM_HEIGHT + LIST_ITEM_GAP), context.width,
     ee5:	8b 4d 10             	mov    0x10(%ebp),%ecx
     ee8:	8b 55 18             	mov    0x18(%ebp),%edx
     eeb:	89 d0                	mov    %edx,%eax
     eed:	c1 e0 05             	shl    $0x5,%eax
     ef0:	29 d0                	sub    %edx,%eax
     ef2:	8d 50 62             	lea    0x62(%eax),%edx
     ef5:	8b 45 08             	mov    0x8(%ebp),%eax
     ef8:	c7 44 24 10 1e 00 00 	movl   $0x1e,0x10(%esp)
     eff:	00 
     f00:	89 4c 24 0c          	mov    %ecx,0xc(%esp)
     f04:	89 54 24 08          	mov    %edx,0x8(%esp)
     f08:	c7 44 24 04 00 00 00 	movl   $0x0,0x4(%esp)
     f0f:	00 
     f10:	89 04 24             	mov    %eax,(%esp)
     f13:	e8 26 24 00 00       	call   333e <initRect>
     f18:	83 ec 04             	sub    $0x4,%esp
				LIST_ITEM_HEIGHT);
	}
}
     f1b:	8b 45 08             	mov    0x8(%ebp),%eax
     f1e:	c9                   	leave  
     f1f:	c2 04 00             	ret    $0x4

00000f22 <addItemEvent>:

// 事件处理相关操作
void addItemEvent(ClickableManager *cm, struct fileItem item) {
     f22:	55                   	push   %ebp
     f23:	89 e5                	mov    %esp,%ebp
     f25:	83 ec 28             	sub    $0x28,%esp
	switch (item.st.type) {
     f28:	0f b7 45 0c          	movzwl 0xc(%ebp),%eax
     f2c:	98                   	cwtl   
     f2d:	83 f8 01             	cmp    $0x1,%eax
     f30:	74 45                	je     f77 <addItemEvent+0x55>
     f32:	83 f8 02             	cmp    $0x2,%eax
     f35:	0f 85 ac 00 00 00    	jne    fe7 <addItemEvent+0xc5>
	case T_FILE:
		createClickable(cm, item.pos, MSG_LPRESS, h_chooseFile);
     f3b:	c7 44 24 18 1a 17 00 	movl   $0x171a,0x18(%esp)
     f42:	00 
     f43:	c7 44 24 14 02 00 00 	movl   $0x2,0x14(%esp)
     f4a:	00 
     f4b:	8b 45 24             	mov    0x24(%ebp),%eax
     f4e:	89 44 24 04          	mov    %eax,0x4(%esp)
     f52:	8b 45 28             	mov    0x28(%ebp),%eax
     f55:	89 44 24 08          	mov    %eax,0x8(%esp)
     f59:	8b 45 2c             	mov    0x2c(%ebp),%eax
     f5c:	89 44 24 0c          	mov    %eax,0xc(%esp)
     f60:	8b 45 30             	mov    0x30(%ebp),%eax
     f63:	89 44 24 10          	mov    %eax,0x10(%esp)
     f67:	8b 45 08             	mov    0x8(%ebp),%eax
     f6a:	89 04 24             	mov    %eax,(%esp)
     f6d:	e8 b8 24 00 00       	call   342a <createClickable>
		break;
     f72:	e9 84 00 00 00       	jmp    ffb <addItemEvent+0xd9>
	case T_DIR:
		createClickable(cm, item.pos, MSG_LPRESS, h_chooseFile);
     f77:	c7 44 24 18 1a 17 00 	movl   $0x171a,0x18(%esp)
     f7e:	00 
     f7f:	c7 44 24 14 02 00 00 	movl   $0x2,0x14(%esp)
     f86:	00 
     f87:	8b 45 24             	mov    0x24(%ebp),%eax
     f8a:	89 44 24 04          	mov    %eax,0x4(%esp)
     f8e:	8b 45 28             	mov    0x28(%ebp),%eax
     f91:	89 44 24 08          	mov    %eax,0x8(%esp)
     f95:	8b 45 2c             	mov    0x2c(%ebp),%eax
     f98:	89 44 24 0c          	mov    %eax,0xc(%esp)
     f9c:	8b 45 30             	mov    0x30(%ebp),%eax
     f9f:	89 44 24 10          	mov    %eax,0x10(%esp)
     fa3:	8b 45 08             	mov    0x8(%ebp),%eax
     fa6:	89 04 24             	mov    %eax,(%esp)
     fa9:	e8 7c 24 00 00       	call   342a <createClickable>
		createClickable(cm, item.pos, MSG_DOUBLECLICK, h_enterDir);
     fae:	c7 44 24 18 f8 11 00 	movl   $0x11f8,0x18(%esp)
     fb5:	00 
     fb6:	c7 44 24 14 04 00 00 	movl   $0x4,0x14(%esp)
     fbd:	00 
     fbe:	8b 45 24             	mov    0x24(%ebp),%eax
     fc1:	89 44 24 04          	mov    %eax,0x4(%esp)
     fc5:	8b 45 28             	mov    0x28(%ebp),%eax
     fc8:	89 44 24 08          	mov    %eax,0x8(%esp)
     fcc:	8b 45 2c             	mov    0x2c(%ebp),%eax
     fcf:	89 44 24 0c          	mov    %eax,0xc(%esp)
     fd3:	8b 45 30             	mov    0x30(%ebp),%eax
     fd6:	89 44 24 10          	mov    %eax,0x10(%esp)
     fda:	8b 45 08             	mov    0x8(%ebp),%eax
     fdd:	89 04 24             	mov    %eax,(%esp)
     fe0:	e8 45 24 00 00       	call   342a <createClickable>
		break;
     fe5:	eb 14                	jmp    ffb <addItemEvent+0xd9>
	default:
		printf(0, "unknown file type!");
     fe7:	c7 44 24 04 45 8a 00 	movl   $0x8a45,0x4(%esp)
     fee:	00 
     fef:	c7 04 24 00 00 00 00 	movl   $0x0,(%esp)
     ff6:	e8 77 2e 00 00       	call   3e72 <printf>
	}
}
     ffb:	c9                   	leave  
     ffc:	c3                   	ret    

00000ffd <addListEvent>:

void addListEvent(ClickableManager *cm) {
     ffd:	55                   	push   %ebp
     ffe:	89 e5                	mov    %esp,%ebp
    1000:	83 ec 58             	sub    $0x58,%esp
	struct fileItem *p, *temp;
	p = fileItemList;
    1003:	a1 00 d7 00 00       	mov    0xd700,%eax
    1008:	89 45 f4             	mov    %eax,-0xc(%ebp)
	while (p != 0) {
    100b:	eb 70                	jmp    107d <addListEvent+0x80>
		temp = p;
    100d:	8b 45 f4             	mov    -0xc(%ebp),%eax
    1010:	89 45 f0             	mov    %eax,-0x10(%ebp)
		p = p->next;
    1013:	8b 45 f4             	mov    -0xc(%ebp),%eax
    1016:	8b 40 2c             	mov    0x2c(%eax),%eax
    1019:	89 45 f4             	mov    %eax,-0xc(%ebp)
		addItemEvent(cm, *temp);
    101c:	8b 45 f0             	mov    -0x10(%ebp),%eax
    101f:	8b 10                	mov    (%eax),%edx
    1021:	89 54 24 04          	mov    %edx,0x4(%esp)
    1025:	8b 50 04             	mov    0x4(%eax),%edx
    1028:	89 54 24 08          	mov    %edx,0x8(%esp)
    102c:	8b 50 08             	mov    0x8(%eax),%edx
    102f:	89 54 24 0c          	mov    %edx,0xc(%esp)
    1033:	8b 50 0c             	mov    0xc(%eax),%edx
    1036:	89 54 24 10          	mov    %edx,0x10(%esp)
    103a:	8b 50 10             	mov    0x10(%eax),%edx
    103d:	89 54 24 14          	mov    %edx,0x14(%esp)
    1041:	8b 50 14             	mov    0x14(%eax),%edx
    1044:	89 54 24 18          	mov    %edx,0x18(%esp)
    1048:	8b 50 18             	mov    0x18(%eax),%edx
    104b:	89 54 24 1c          	mov    %edx,0x1c(%esp)
    104f:	8b 50 1c             	mov    0x1c(%eax),%edx
    1052:	89 54 24 20          	mov    %edx,0x20(%esp)
    1056:	8b 50 20             	mov    0x20(%eax),%edx
    1059:	89 54 24 24          	mov    %edx,0x24(%esp)
    105d:	8b 50 24             	mov    0x24(%eax),%edx
    1060:	89 54 24 28          	mov    %edx,0x28(%esp)
    1064:	8b 50 28             	mov    0x28(%eax),%edx
    1067:	89 54 24 2c          	mov    %edx,0x2c(%esp)
    106b:	8b 40 2c             	mov    0x2c(%eax),%eax
    106e:	89 44 24 30          	mov    %eax,0x30(%esp)
    1072:	8b 45 08             	mov    0x8(%ebp),%eax
    1075:	89 04 24             	mov    %eax,(%esp)
    1078:	e8 a5 fe ff ff       	call   f22 <addItemEvent>
}

void addListEvent(ClickableManager *cm) {
	struct fileItem *p, *temp;
	p = fileItemList;
	while (p != 0) {
    107d:	83 7d f4 00          	cmpl   $0x0,-0xc(%ebp)
    1081:	75 8a                	jne    100d <addListEvent+0x10>
		temp = p;
		p = p->next;
		addItemEvent(cm, *temp);
	}
}
    1083:	c9                   	leave  
    1084:	c3                   	ret    

00001085 <addWndEvent>:

Handler wndEvents[] = { h_closeWnd, h_empty, h_chvm2, h_chvm1, h_newFolder,
		h_newFile, h_goUp, h_deleteFile };

void addWndEvent(ClickableManager *cm) {
    1085:	55                   	push   %ebp
    1086:	89 e5                	mov    %esp,%ebp
    1088:	57                   	push   %edi
    1089:	56                   	push   %esi
    108a:	53                   	push   %ebx
    108b:	83 ec 4c             	sub    $0x4c,%esp
	int i;
	int n = sizeof(wndEvents) / sizeof(Handler);
    108e:	c7 45 e0 08 00 00 00 	movl   $0x8,-0x20(%ebp)
	for (i = 0; i < n; i++) {
    1095:	c7 45 e4 00 00 00 00 	movl   $0x0,-0x1c(%ebp)
    109c:	e9 96 00 00 00       	jmp    1137 <addWndEvent+0xb2>
		createClickable(cm,
    10a1:	8b 45 e4             	mov    -0x1c(%ebp),%eax
    10a4:	8b 1c 85 00 a6 00 00 	mov    0xa600(,%eax,4),%ebx
    10ab:	8b 45 e4             	mov    -0x1c(%ebp),%eax
    10ae:	6b c0 34             	imul   $0x34,%eax,%eax
    10b1:	05 80 a4 00 00       	add    $0xa480,%eax
    10b6:	8b 78 10             	mov    0x10(%eax),%edi
    10b9:	8b 45 e4             	mov    -0x1c(%ebp),%eax
    10bc:	6b c0 34             	imul   $0x34,%eax,%eax
    10bf:	05 80 a4 00 00       	add    $0xa480,%eax
    10c4:	8b 70 0c             	mov    0xc(%eax),%esi
    10c7:	8b 45 e4             	mov    -0x1c(%ebp),%eax
    10ca:	6b c0 34             	imul   $0x34,%eax,%eax
    10cd:	05 80 a4 00 00       	add    $0xa480,%eax
    10d2:	8b 48 04             	mov    0x4(%eax),%ecx
    10d5:	8b 45 e4             	mov    -0x1c(%ebp),%eax
    10d8:	6b c0 34             	imul   $0x34,%eax,%eax
    10db:	05 80 a4 00 00       	add    $0xa480,%eax
    10e0:	8b 10                	mov    (%eax),%edx
    10e2:	8d 45 d0             	lea    -0x30(%ebp),%eax
    10e5:	89 7c 24 10          	mov    %edi,0x10(%esp)
    10e9:	89 74 24 0c          	mov    %esi,0xc(%esp)
    10ed:	89 4c 24 08          	mov    %ecx,0x8(%esp)
    10f1:	89 54 24 04          	mov    %edx,0x4(%esp)
    10f5:	89 04 24             	mov    %eax,(%esp)
    10f8:	e8 41 22 00 00       	call   333e <initRect>
    10fd:	83 ec 04             	sub    $0x4,%esp
    1100:	89 5c 24 18          	mov    %ebx,0x18(%esp)
    1104:	c7 44 24 14 02 00 00 	movl   $0x2,0x14(%esp)
    110b:	00 
    110c:	8b 45 d0             	mov    -0x30(%ebp),%eax
    110f:	89 44 24 04          	mov    %eax,0x4(%esp)
    1113:	8b 45 d4             	mov    -0x2c(%ebp),%eax
    1116:	89 44 24 08          	mov    %eax,0x8(%esp)
    111a:	8b 45 d8             	mov    -0x28(%ebp),%eax
    111d:	89 44 24 0c          	mov    %eax,0xc(%esp)
    1121:	8b 45 dc             	mov    -0x24(%ebp),%eax
    1124:	89 44 24 10          	mov    %eax,0x10(%esp)
    1128:	8b 45 08             	mov    0x8(%ebp),%eax
    112b:	89 04 24             	mov    %eax,(%esp)
    112e:	e8 f7 22 00 00       	call   342a <createClickable>
		h_newFile, h_goUp, h_deleteFile };

void addWndEvent(ClickableManager *cm) {
	int i;
	int n = sizeof(wndEvents) / sizeof(Handler);
	for (i = 0; i < n; i++) {
    1133:	83 45 e4 01          	addl   $0x1,-0x1c(%ebp)
    1137:	8b 45 e4             	mov    -0x1c(%ebp),%eax
    113a:	3b 45 e0             	cmp    -0x20(%ebp),%eax
    113d:	0f 8c 5e ff ff ff    	jl     10a1 <addWndEvent+0x1c>
		createClickable(cm,
				initRect(wndRes[i].position_x, wndRes[i].position_y,
						wndRes[i].pic.width, wndRes[i].pic.height), MSG_LPRESS,
				wndEvents[i]);
	}
}
    1143:	8d 65 f4             	lea    -0xc(%ebp),%esp
    1146:	5b                   	pop    %ebx
    1147:	5e                   	pop    %esi
    1148:	5f                   	pop    %edi
    1149:	5d                   	pop    %ebp
    114a:	c3                   	ret    

0000114b <getFileItem>:

struct fileItem * getFileItem(Point point) {
    114b:	55                   	push   %ebp
    114c:	89 e5                	mov    %esp,%ebp
    114e:	83 ec 38             	sub    $0x38,%esp
	struct fileItem *p = fileItemList;
    1151:	a1 00 d7 00 00       	mov    0xd700,%eax
    1156:	89 45 f4             	mov    %eax,-0xc(%ebp)
	while (p != 0) {
    1159:	eb 43                	jmp    119e <getFileItem+0x53>
		if (isIn(point, p->pos)) {
    115b:	8b 45 f4             	mov    -0xc(%ebp),%eax
    115e:	8b 50 18             	mov    0x18(%eax),%edx
    1161:	89 54 24 08          	mov    %edx,0x8(%esp)
    1165:	8b 50 1c             	mov    0x1c(%eax),%edx
    1168:	89 54 24 0c          	mov    %edx,0xc(%esp)
    116c:	8b 50 20             	mov    0x20(%eax),%edx
    116f:	89 54 24 10          	mov    %edx,0x10(%esp)
    1173:	8b 40 24             	mov    0x24(%eax),%eax
    1176:	89 44 24 14          	mov    %eax,0x14(%esp)
    117a:	8b 45 08             	mov    0x8(%ebp),%eax
    117d:	8b 55 0c             	mov    0xc(%ebp),%edx
    1180:	89 04 24             	mov    %eax,(%esp)
    1183:	89 54 24 04          	mov    %edx,0x4(%esp)
    1187:	e8 0d 22 00 00       	call   3399 <isIn>
    118c:	85 c0                	test   %eax,%eax
    118e:	74 05                	je     1195 <getFileItem+0x4a>
			return p;
    1190:	8b 45 f4             	mov    -0xc(%ebp),%eax
    1193:	eb 14                	jmp    11a9 <getFileItem+0x5e>
		}
		p = p->next;
    1195:	8b 45 f4             	mov    -0xc(%ebp),%eax
    1198:	8b 40 2c             	mov    0x2c(%eax),%eax
    119b:	89 45 f4             	mov    %eax,-0xc(%ebp)
	}
}

struct fileItem * getFileItem(Point point) {
	struct fileItem *p = fileItemList;
	while (p != 0) {
    119e:	83 7d f4 00          	cmpl   $0x0,-0xc(%ebp)
    11a2:	75 b7                	jne    115b <getFileItem+0x10>
		if (isIn(point, p->pos)) {
			return p;
		}
		p = p->next;
	}
	return 0;
    11a4:	b8 00 00 00 00       	mov    $0x0,%eax
}
    11a9:	c9                   	leave  
    11aa:	c3                   	ret    

000011ab <enterDir>:

// Handlers
void enterDir(char *name) {
    11ab:	55                   	push   %ebp
    11ac:	89 e5                	mov    %esp,%ebp
    11ae:	83 ec 18             	sub    $0x18,%esp
	printf(0, "entering : %s\n", name);
    11b1:	8b 45 08             	mov    0x8(%ebp),%eax
    11b4:	89 44 24 08          	mov    %eax,0x8(%esp)
    11b8:	c7 44 24 04 58 8a 00 	movl   $0x8a58,0x4(%esp)
    11bf:	00 
    11c0:	c7 04 24 00 00 00 00 	movl   $0x0,(%esp)
    11c7:	e8 a6 2c 00 00       	call   3e72 <printf>
	if (chdir(name) < 0)
    11cc:	8b 45 08             	mov    0x8(%ebp),%eax
    11cf:	89 04 24             	mov    %eax,(%esp)
    11d2:	e8 23 2b 00 00       	call   3cfa <chdir>
    11d7:	85 c0                	test   %eax,%eax
    11d9:	79 1b                	jns    11f6 <enterDir+0x4b>
		printf(2, "cannot cd %s\n", name);
    11db:	8b 45 08             	mov    0x8(%ebp),%eax
    11de:	89 44 24 08          	mov    %eax,0x8(%esp)
    11e2:	c7 44 24 04 67 8a 00 	movl   $0x8a67,0x4(%esp)
    11e9:	00 
    11ea:	c7 04 24 02 00 00 00 	movl   $0x2,(%esp)
    11f1:	e8 7c 2c 00 00       	call   3e72 <printf>
}
    11f6:	c9                   	leave  
    11f7:	c3                   	ret    

000011f8 <h_enterDir>:

void h_enterDir(Point p) {
    11f8:	55                   	push   %ebp
    11f9:	89 e5                	mov    %esp,%ebp
    11fb:	83 ec 48             	sub    $0x48,%esp
	struct fileItem *temp = getFileItem(p);
    11fe:	8b 45 08             	mov    0x8(%ebp),%eax
    1201:	8b 55 0c             	mov    0xc(%ebp),%edx
    1204:	89 04 24             	mov    %eax,(%esp)
    1207:	89 54 24 04          	mov    %edx,0x4(%esp)
    120b:	e8 3b ff ff ff       	call   114b <getFileItem>
    1210:	89 45 f4             	mov    %eax,-0xc(%ebp)
	enterDir(temp->name);
    1213:	8b 45 f4             	mov    -0xc(%ebp),%eax
    1216:	8b 40 14             	mov    0x14(%eax),%eax
    1219:	89 04 24             	mov    %eax,(%esp)
    121c:	e8 8a ff ff ff       	call   11ab <enterDir>
	freeFileItemList();
    1221:	e8 ab ee ff ff       	call   d1 <freeFileItemList>
	list(".");
    1226:	c7 04 24 75 8a 00 00 	movl   $0x8a75,(%esp)
    122d:	e8 7d ef ff ff       	call   1af <list>
	drawFinderContent(context);
    1232:	a1 80 11 01 00       	mov    0x11180,%eax
    1237:	89 04 24             	mov    %eax,(%esp)
    123a:	a1 84 11 01 00       	mov    0x11184,%eax
    123f:	89 44 24 04          	mov    %eax,0x4(%esp)
    1243:	a1 88 11 01 00       	mov    0x11188,%eax
    1248:	89 44 24 08          	mov    %eax,0x8(%esp)
    124c:	e8 62 f8 ff ff       	call   ab3 <drawFinderContent>
	deleteClickable(&cm.left_click, initRect(0, 0, 800, 600));
    1251:	8d 45 e4             	lea    -0x1c(%ebp),%eax
    1254:	c7 44 24 10 58 02 00 	movl   $0x258,0x10(%esp)
    125b:	00 
    125c:	c7 44 24 0c 20 03 00 	movl   $0x320,0xc(%esp)
    1263:	00 
    1264:	c7 44 24 08 00 00 00 	movl   $0x0,0x8(%esp)
    126b:	00 
    126c:	c7 44 24 04 00 00 00 	movl   $0x0,0x4(%esp)
    1273:	00 
    1274:	89 04 24             	mov    %eax,(%esp)
    1277:	e8 c2 20 00 00       	call   333e <initRect>
    127c:	83 ec 04             	sub    $0x4,%esp
    127f:	8b 45 e4             	mov    -0x1c(%ebp),%eax
    1282:	89 44 24 04          	mov    %eax,0x4(%esp)
    1286:	8b 45 e8             	mov    -0x18(%ebp),%eax
    1289:	89 44 24 08          	mov    %eax,0x8(%esp)
    128d:	8b 45 ec             	mov    -0x14(%ebp),%eax
    1290:	89 44 24 0c          	mov    %eax,0xc(%esp)
    1294:	8b 45 f0             	mov    -0x10(%ebp),%eax
    1297:	89 44 24 10          	mov    %eax,0x10(%esp)
    129b:	c7 04 24 8c 11 01 00 	movl   $0x1118c,(%esp)
    12a2:	e8 9a 22 00 00       	call   3541 <deleteClickable>
	addWndEvent(&cm);
    12a7:	c7 04 24 8c 11 01 00 	movl   $0x1118c,(%esp)
    12ae:	e8 d2 fd ff ff       	call   1085 <addWndEvent>
	addListEvent(&cm);
    12b3:	c7 04 24 8c 11 01 00 	movl   $0x1118c,(%esp)
    12ba:	e8 3e fd ff ff       	call   ffd <addListEvent>
}
    12bf:	c9                   	leave  
    12c0:	c3                   	ret    

000012c1 <newFile>:

void newFile(char *name) {
    12c1:	55                   	push   %ebp
    12c2:	89 e5                	mov    %esp,%ebp
    12c4:	83 ec 28             	sub    $0x28,%esp
	int fd;
	int n = strlen(name);
    12c7:	8b 45 08             	mov    0x8(%ebp),%eax
    12ca:	89 04 24             	mov    %eax,(%esp)
    12cd:	e8 e4 27 00 00       	call   3ab6 <strlen>
    12d2:	89 45 f0             	mov    %eax,-0x10(%ebp)
	int baseLen = 8;
    12d5:	c7 45 ec 08 00 00 00 	movl   $0x8,-0x14(%ebp)
	int counter;
	while ((fd = open(name, 0)) > 0)
    12dc:	eb 60                	jmp    133e <newFile+0x7d>
	{
		n = strlen(name);
    12de:	8b 45 08             	mov    0x8(%ebp),%eax
    12e1:	89 04 24             	mov    %eax,(%esp)
    12e4:	e8 cd 27 00 00       	call   3ab6 <strlen>
    12e9:	89 45 f0             	mov    %eax,-0x10(%ebp)
		if (n == baseLen)
    12ec:	8b 45 f0             	mov    -0x10(%ebp),%eax
    12ef:	3b 45 ec             	cmp    -0x14(%ebp),%eax
    12f2:	75 09                	jne    12fd <newFile+0x3c>
		{
			counter = 1;
    12f4:	c7 45 f4 01 00 00 00 	movl   $0x1,-0xc(%ebp)
    12fb:	eb 17                	jmp    1314 <newFile+0x53>
		}
		else
		{
			counter = atoi(&name[baseLen]);
    12fd:	8b 55 ec             	mov    -0x14(%ebp),%edx
    1300:	8b 45 08             	mov    0x8(%ebp),%eax
    1303:	01 d0                	add    %edx,%eax
    1305:	89 04 24             	mov    %eax,(%esp)
    1308:	e8 eb 28 00 00       	call   3bf8 <atoi>
    130d:	89 45 f4             	mov    %eax,-0xc(%ebp)
			counter ++;
    1310:	83 45 f4 01          	addl   $0x1,-0xc(%ebp)
		}
		strcpy(&name[baseLen], int2str(counter));
    1314:	8b 45 f4             	mov    -0xc(%ebp),%eax
    1317:	89 04 24             	mov    %eax,(%esp)
    131a:	e8 1b fa ff ff       	call   d3a <int2str>
    131f:	8b 4d ec             	mov    -0x14(%ebp),%ecx
    1322:	8b 55 08             	mov    0x8(%ebp),%edx
    1325:	01 ca                	add    %ecx,%edx
    1327:	89 44 24 04          	mov    %eax,0x4(%esp)
    132b:	89 14 24             	mov    %edx,(%esp)
    132e:	e8 14 27 00 00       	call   3a47 <strcpy>
		close(fd);
    1333:	8b 45 e8             	mov    -0x18(%ebp),%eax
    1336:	89 04 24             	mov    %eax,(%esp)
    1339:	e8 74 29 00 00       	call   3cb2 <close>
void newFile(char *name) {
	int fd;
	int n = strlen(name);
	int baseLen = 8;
	int counter;
	while ((fd = open(name, 0)) > 0)
    133e:	c7 44 24 04 00 00 00 	movl   $0x0,0x4(%esp)
    1345:	00 
    1346:	8b 45 08             	mov    0x8(%ebp),%eax
    1349:	89 04 24             	mov    %eax,(%esp)
    134c:	e8 79 29 00 00       	call   3cca <open>
    1351:	89 45 e8             	mov    %eax,-0x18(%ebp)
    1354:	83 7d e8 00          	cmpl   $0x0,-0x18(%ebp)
    1358:	7f 84                	jg     12de <newFile+0x1d>
			counter ++;
		}
		strcpy(&name[baseLen], int2str(counter));
		close(fd);
	}
	if ((fd = open(name, O_CREATE)) < 0) {
    135a:	c7 44 24 04 00 02 00 	movl   $0x200,0x4(%esp)
    1361:	00 
    1362:	8b 45 08             	mov    0x8(%ebp),%eax
    1365:	89 04 24             	mov    %eax,(%esp)
    1368:	e8 5d 29 00 00       	call   3cca <open>
    136d:	89 45 e8             	mov    %eax,-0x18(%ebp)
    1370:	83 7d e8 00          	cmpl   $0x0,-0x18(%ebp)
    1374:	79 20                	jns    1396 <newFile+0xd5>
		printf(0, "cat: cannot open %s\n", name);
    1376:	8b 45 08             	mov    0x8(%ebp),%eax
    1379:	89 44 24 08          	mov    %eax,0x8(%esp)
    137d:	c7 44 24 04 77 8a 00 	movl   $0x8a77,0x4(%esp)
    1384:	00 
    1385:	c7 04 24 00 00 00 00 	movl   $0x0,(%esp)
    138c:	e8 e1 2a 00 00       	call   3e72 <printf>
		exit();
    1391:	e8 f4 28 00 00       	call   3c8a <exit>
	}
	close(fd);
    1396:	8b 45 e8             	mov    -0x18(%ebp),%eax
    1399:	89 04 24             	mov    %eax,(%esp)
    139c:	e8 11 29 00 00       	call   3cb2 <close>
}
    13a1:	c9                   	leave  
    13a2:	c3                   	ret    

000013a3 <h_newFile>:

void h_newFile(Point p) {
    13a3:	55                   	push   %ebp
    13a4:	89 e5                	mov    %esp,%ebp
    13a6:	83 ec 58             	sub    $0x58,%esp
	char nf[32] = "file.txt";
    13a9:	c7 45 c8 66 69 6c 65 	movl   $0x656c6966,-0x38(%ebp)
    13b0:	c7 45 cc 2e 74 78 74 	movl   $0x7478742e,-0x34(%ebp)
    13b7:	c7 45 d0 00 00 00 00 	movl   $0x0,-0x30(%ebp)
    13be:	c7 45 d4 00 00 00 00 	movl   $0x0,-0x2c(%ebp)
    13c5:	c7 45 d8 00 00 00 00 	movl   $0x0,-0x28(%ebp)
    13cc:	c7 45 dc 00 00 00 00 	movl   $0x0,-0x24(%ebp)
    13d3:	c7 45 e0 00 00 00 00 	movl   $0x0,-0x20(%ebp)
    13da:	c7 45 e4 00 00 00 00 	movl   $0x0,-0x1c(%ebp)
	newFile(nf);
    13e1:	8d 45 c8             	lea    -0x38(%ebp),%eax
    13e4:	89 04 24             	mov    %eax,(%esp)
    13e7:	e8 d5 fe ff ff       	call   12c1 <newFile>
	freeFileItemList();
    13ec:	e8 e0 ec ff ff       	call   d1 <freeFileItemList>
	list(".");
    13f1:	c7 04 24 75 8a 00 00 	movl   $0x8a75,(%esp)
    13f8:	e8 b2 ed ff ff       	call   1af <list>
	drawFinderContent(context);
    13fd:	a1 80 11 01 00       	mov    0x11180,%eax
    1402:	89 04 24             	mov    %eax,(%esp)
    1405:	a1 84 11 01 00       	mov    0x11184,%eax
    140a:	89 44 24 04          	mov    %eax,0x4(%esp)
    140e:	a1 88 11 01 00       	mov    0x11188,%eax
    1413:	89 44 24 08          	mov    %eax,0x8(%esp)
    1417:	e8 97 f6 ff ff       	call   ab3 <drawFinderContent>
	deleteClickable(&cm.left_click, initRect(0, 0, 800, 600));
    141c:	8d 45 e8             	lea    -0x18(%ebp),%eax
    141f:	c7 44 24 10 58 02 00 	movl   $0x258,0x10(%esp)
    1426:	00 
    1427:	c7 44 24 0c 20 03 00 	movl   $0x320,0xc(%esp)
    142e:	00 
    142f:	c7 44 24 08 00 00 00 	movl   $0x0,0x8(%esp)
    1436:	00 
    1437:	c7 44 24 04 00 00 00 	movl   $0x0,0x4(%esp)
    143e:	00 
    143f:	89 04 24             	mov    %eax,(%esp)
    1442:	e8 f7 1e 00 00       	call   333e <initRect>
    1447:	83 ec 04             	sub    $0x4,%esp
    144a:	8b 45 e8             	mov    -0x18(%ebp),%eax
    144d:	89 44 24 04          	mov    %eax,0x4(%esp)
    1451:	8b 45 ec             	mov    -0x14(%ebp),%eax
    1454:	89 44 24 08          	mov    %eax,0x8(%esp)
    1458:	8b 45 f0             	mov    -0x10(%ebp),%eax
    145b:	89 44 24 0c          	mov    %eax,0xc(%esp)
    145f:	8b 45 f4             	mov    -0xc(%ebp),%eax
    1462:	89 44 24 10          	mov    %eax,0x10(%esp)
    1466:	c7 04 24 8c 11 01 00 	movl   $0x1118c,(%esp)
    146d:	e8 cf 20 00 00       	call   3541 <deleteClickable>
	addWndEvent(&cm);
    1472:	c7 04 24 8c 11 01 00 	movl   $0x1118c,(%esp)
    1479:	e8 07 fc ff ff       	call   1085 <addWndEvent>
	addListEvent(&cm);
    147e:	c7 04 24 8c 11 01 00 	movl   $0x1118c,(%esp)
    1485:	e8 73 fb ff ff       	call   ffd <addListEvent>
}
    148a:	c9                   	leave  
    148b:	c3                   	ret    

0000148c <newFolder>:

void newFolder(char *name) {
    148c:	55                   	push   %ebp
    148d:	89 e5                	mov    %esp,%ebp
    148f:	83 ec 28             	sub    $0x28,%esp
//	int fd;
//	int n = strlen(newfolder);
	int n = strlen(name);
    1492:	8b 45 08             	mov    0x8(%ebp),%eax
    1495:	89 04 24             	mov    %eax,(%esp)
    1498:	e8 19 26 00 00       	call   3ab6 <strlen>
    149d:	89 45 f0             	mov    %eax,-0x10(%ebp)
	int baseLen = 9;
    14a0:	c7 45 ec 09 00 00 00 	movl   $0x9,-0x14(%ebp)
	int counter;
	while (mkdir(name) < 0) {
    14a7:	eb 55                	jmp    14fe <newFolder+0x72>
		n = strlen(name);
    14a9:	8b 45 08             	mov    0x8(%ebp),%eax
    14ac:	89 04 24             	mov    %eax,(%esp)
    14af:	e8 02 26 00 00       	call   3ab6 <strlen>
    14b4:	89 45 f0             	mov    %eax,-0x10(%ebp)
		if (n == baseLen)
    14b7:	8b 45 f0             	mov    -0x10(%ebp),%eax
    14ba:	3b 45 ec             	cmp    -0x14(%ebp),%eax
    14bd:	75 09                	jne    14c8 <newFolder+0x3c>
		{
			counter = 1;
    14bf:	c7 45 f4 01 00 00 00 	movl   $0x1,-0xc(%ebp)
    14c6:	eb 17                	jmp    14df <newFolder+0x53>
		}
		else
		{
			counter = atoi(&name[baseLen]);
    14c8:	8b 55 ec             	mov    -0x14(%ebp),%edx
    14cb:	8b 45 08             	mov    0x8(%ebp),%eax
    14ce:	01 d0                	add    %edx,%eax
    14d0:	89 04 24             	mov    %eax,(%esp)
    14d3:	e8 20 27 00 00       	call   3bf8 <atoi>
    14d8:	89 45 f4             	mov    %eax,-0xc(%ebp)
			counter ++;
    14db:	83 45 f4 01          	addl   $0x1,-0xc(%ebp)
		}
		strcpy(&name[baseLen], int2str(counter));
    14df:	8b 45 f4             	mov    -0xc(%ebp),%eax
    14e2:	89 04 24             	mov    %eax,(%esp)
    14e5:	e8 50 f8 ff ff       	call   d3a <int2str>
    14ea:	8b 4d ec             	mov    -0x14(%ebp),%ecx
    14ed:	8b 55 08             	mov    0x8(%ebp),%edx
    14f0:	01 ca                	add    %ecx,%edx
    14f2:	89 44 24 04          	mov    %eax,0x4(%esp)
    14f6:	89 14 24             	mov    %edx,(%esp)
    14f9:	e8 49 25 00 00       	call   3a47 <strcpy>
//	int fd;
//	int n = strlen(newfolder);
	int n = strlen(name);
	int baseLen = 9;
	int counter;
	while (mkdir(name) < 0) {
    14fe:	8b 45 08             	mov    0x8(%ebp),%eax
    1501:	89 04 24             	mov    %eax,(%esp)
    1504:	e8 e9 27 00 00       	call   3cf2 <mkdir>
    1509:	85 c0                	test   %eax,%eax
    150b:	78 9c                	js     14a9 <newFolder+0x1d>
			counter ++;
		}
		strcpy(&name[baseLen], int2str(counter));
		//printf(0, "mkdir: %s failed to create\n", newfolder);
	}
}
    150d:	c9                   	leave  
    150e:	c3                   	ret    

0000150f <h_newFolder>:

void h_newFolder(Point p) {
    150f:	55                   	push   %ebp
    1510:	89 e5                	mov    %esp,%ebp
    1512:	83 ec 58             	sub    $0x58,%esp
	char nf[32] = "newFolder";
    1515:	c7 45 c8 6e 65 77 46 	movl   $0x4677656e,-0x38(%ebp)
    151c:	c7 45 cc 6f 6c 64 65 	movl   $0x65646c6f,-0x34(%ebp)
    1523:	c7 45 d0 72 00 00 00 	movl   $0x72,-0x30(%ebp)
    152a:	c7 45 d4 00 00 00 00 	movl   $0x0,-0x2c(%ebp)
    1531:	c7 45 d8 00 00 00 00 	movl   $0x0,-0x28(%ebp)
    1538:	c7 45 dc 00 00 00 00 	movl   $0x0,-0x24(%ebp)
    153f:	c7 45 e0 00 00 00 00 	movl   $0x0,-0x20(%ebp)
    1546:	c7 45 e4 00 00 00 00 	movl   $0x0,-0x1c(%ebp)
	newFolder(nf);
    154d:	8d 45 c8             	lea    -0x38(%ebp),%eax
    1550:	89 04 24             	mov    %eax,(%esp)
    1553:	e8 34 ff ff ff       	call   148c <newFolder>
	freeFileItemList();
    1558:	e8 74 eb ff ff       	call   d1 <freeFileItemList>
	printf(0, "new folder!\n");
    155d:	c7 44 24 04 8c 8a 00 	movl   $0x8a8c,0x4(%esp)
    1564:	00 
    1565:	c7 04 24 00 00 00 00 	movl   $0x0,(%esp)
    156c:	e8 01 29 00 00       	call   3e72 <printf>
	list(".");
    1571:	c7 04 24 75 8a 00 00 	movl   $0x8a75,(%esp)
    1578:	e8 32 ec ff ff       	call   1af <list>
	printItemList();
    157d:	e8 9c f8 ff ff       	call   e1e <printItemList>
	drawFinderContent(context);
    1582:	a1 80 11 01 00       	mov    0x11180,%eax
    1587:	89 04 24             	mov    %eax,(%esp)
    158a:	a1 84 11 01 00       	mov    0x11184,%eax
    158f:	89 44 24 04          	mov    %eax,0x4(%esp)
    1593:	a1 88 11 01 00       	mov    0x11188,%eax
    1598:	89 44 24 08          	mov    %eax,0x8(%esp)
    159c:	e8 12 f5 ff ff       	call   ab3 <drawFinderContent>
	deleteClickable(&cm.left_click, initRect(0, 0, 800, 600));
    15a1:	8d 45 e8             	lea    -0x18(%ebp),%eax
    15a4:	c7 44 24 10 58 02 00 	movl   $0x258,0x10(%esp)
    15ab:	00 
    15ac:	c7 44 24 0c 20 03 00 	movl   $0x320,0xc(%esp)
    15b3:	00 
    15b4:	c7 44 24 08 00 00 00 	movl   $0x0,0x8(%esp)
    15bb:	00 
    15bc:	c7 44 24 04 00 00 00 	movl   $0x0,0x4(%esp)
    15c3:	00 
    15c4:	89 04 24             	mov    %eax,(%esp)
    15c7:	e8 72 1d 00 00       	call   333e <initRect>
    15cc:	83 ec 04             	sub    $0x4,%esp
    15cf:	8b 45 e8             	mov    -0x18(%ebp),%eax
    15d2:	89 44 24 04          	mov    %eax,0x4(%esp)
    15d6:	8b 45 ec             	mov    -0x14(%ebp),%eax
    15d9:	89 44 24 08          	mov    %eax,0x8(%esp)
    15dd:	8b 45 f0             	mov    -0x10(%ebp),%eax
    15e0:	89 44 24 0c          	mov    %eax,0xc(%esp)
    15e4:	8b 45 f4             	mov    -0xc(%ebp),%eax
    15e7:	89 44 24 10          	mov    %eax,0x10(%esp)
    15eb:	c7 04 24 8c 11 01 00 	movl   $0x1118c,(%esp)
    15f2:	e8 4a 1f 00 00       	call   3541 <deleteClickable>
	addWndEvent(&cm);
    15f7:	c7 04 24 8c 11 01 00 	movl   $0x1118c,(%esp)
    15fe:	e8 82 fa ff ff       	call   1085 <addWndEvent>
	addListEvent(&cm);
    1603:	c7 04 24 8c 11 01 00 	movl   $0x1118c,(%esp)
    160a:	e8 ee f9 ff ff       	call   ffd <addListEvent>
}
    160f:	c9                   	leave  
    1610:	c3                   	ret    

00001611 <deleteFile>:

void deleteFile(char *name)
{
    1611:	55                   	push   %ebp
    1612:	89 e5                	mov    %esp,%ebp
    1614:	83 ec 18             	sub    $0x18,%esp
	if(unlink(name) < 0){
    1617:	8b 45 08             	mov    0x8(%ebp),%eax
    161a:	89 04 24             	mov    %eax,(%esp)
    161d:	e8 b8 26 00 00       	call   3cda <unlink>
    1622:	85 c0                	test   %eax,%eax
    1624:	79 1b                	jns    1641 <deleteFile+0x30>
		 printf(2, "rm: %s failed to delete\n", name);
    1626:	8b 45 08             	mov    0x8(%ebp),%eax
    1629:	89 44 24 08          	mov    %eax,0x8(%esp)
    162d:	c7 44 24 04 99 8a 00 	movl   $0x8a99,0x4(%esp)
    1634:	00 
    1635:	c7 04 24 02 00 00 00 	movl   $0x2,(%esp)
    163c:	e8 31 28 00 00       	call   3e72 <printf>
	}
}
    1641:	c9                   	leave  
    1642:	c3                   	ret    

00001643 <h_deleteFile>:
void h_deleteFile(Point p) {
    1643:	55                   	push   %ebp
    1644:	89 e5                	mov    %esp,%ebp
    1646:	83 ec 48             	sub    $0x48,%esp
	struct fileItem *q = fileItemList;
    1649:	a1 00 d7 00 00       	mov    0xd700,%eax
    164e:	89 45 f4             	mov    %eax,-0xc(%ebp)
	while (q != 0)
    1651:	eb 21                	jmp    1674 <h_deleteFile+0x31>
	{
		if (q->chosen)
    1653:	8b 45 f4             	mov    -0xc(%ebp),%eax
    1656:	8b 40 28             	mov    0x28(%eax),%eax
    1659:	85 c0                	test   %eax,%eax
    165b:	74 0e                	je     166b <h_deleteFile+0x28>
		{
			deleteFile(q->name);
    165d:	8b 45 f4             	mov    -0xc(%ebp),%eax
    1660:	8b 40 14             	mov    0x14(%eax),%eax
    1663:	89 04 24             	mov    %eax,(%esp)
    1666:	e8 a6 ff ff ff       	call   1611 <deleteFile>
		}
		q = q->next;
    166b:	8b 45 f4             	mov    -0xc(%ebp),%eax
    166e:	8b 40 2c             	mov    0x2c(%eax),%eax
    1671:	89 45 f4             	mov    %eax,-0xc(%ebp)
		 printf(2, "rm: %s failed to delete\n", name);
	}
}
void h_deleteFile(Point p) {
	struct fileItem *q = fileItemList;
	while (q != 0)
    1674:	83 7d f4 00          	cmpl   $0x0,-0xc(%ebp)
    1678:	75 d9                	jne    1653 <h_deleteFile+0x10>
		{
			deleteFile(q->name);
		}
		q = q->next;
	}
	freeFileItemList();
    167a:	e8 52 ea ff ff       	call   d1 <freeFileItemList>
	list(".");
    167f:	c7 04 24 75 8a 00 00 	movl   $0x8a75,(%esp)
    1686:	e8 24 eb ff ff       	call   1af <list>
	drawFinderContent(context);
    168b:	a1 80 11 01 00       	mov    0x11180,%eax
    1690:	89 04 24             	mov    %eax,(%esp)
    1693:	a1 84 11 01 00       	mov    0x11184,%eax
    1698:	89 44 24 04          	mov    %eax,0x4(%esp)
    169c:	a1 88 11 01 00       	mov    0x11188,%eax
    16a1:	89 44 24 08          	mov    %eax,0x8(%esp)
    16a5:	e8 09 f4 ff ff       	call   ab3 <drawFinderContent>
		deleteClickable(&cm.left_click, initRect(0, 0, 800, 600));
    16aa:	8d 45 e4             	lea    -0x1c(%ebp),%eax
    16ad:	c7 44 24 10 58 02 00 	movl   $0x258,0x10(%esp)
    16b4:	00 
    16b5:	c7 44 24 0c 20 03 00 	movl   $0x320,0xc(%esp)
    16bc:	00 
    16bd:	c7 44 24 08 00 00 00 	movl   $0x0,0x8(%esp)
    16c4:	00 
    16c5:	c7 44 24 04 00 00 00 	movl   $0x0,0x4(%esp)
    16cc:	00 
    16cd:	89 04 24             	mov    %eax,(%esp)
    16d0:	e8 69 1c 00 00       	call   333e <initRect>
    16d5:	83 ec 04             	sub    $0x4,%esp
    16d8:	8b 45 e4             	mov    -0x1c(%ebp),%eax
    16db:	89 44 24 04          	mov    %eax,0x4(%esp)
    16df:	8b 45 e8             	mov    -0x18(%ebp),%eax
    16e2:	89 44 24 08          	mov    %eax,0x8(%esp)
    16e6:	8b 45 ec             	mov    -0x14(%ebp),%eax
    16e9:	89 44 24 0c          	mov    %eax,0xc(%esp)
    16ed:	8b 45 f0             	mov    -0x10(%ebp),%eax
    16f0:	89 44 24 10          	mov    %eax,0x10(%esp)
    16f4:	c7 04 24 8c 11 01 00 	movl   $0x1118c,(%esp)
    16fb:	e8 41 1e 00 00       	call   3541 <deleteClickable>
		addWndEvent(&cm);
    1700:	c7 04 24 8c 11 01 00 	movl   $0x1118c,(%esp)
    1707:	e8 79 f9 ff ff       	call   1085 <addWndEvent>
		addListEvent(&cm);
    170c:	c7 04 24 8c 11 01 00 	movl   $0x1118c,(%esp)
    1713:	e8 e5 f8 ff ff       	call   ffd <addListEvent>
}
    1718:	c9                   	leave  
    1719:	c3                   	ret    

0000171a <h_chooseFile>:

void h_chooseFile(Point p) {
    171a:	55                   	push   %ebp
    171b:	89 e5                	mov    %esp,%ebp
    171d:	83 ec 28             	sub    $0x28,%esp
	struct fileItem *temp = getFileItem(p);
    1720:	8b 45 08             	mov    0x8(%ebp),%eax
    1723:	8b 55 0c             	mov    0xc(%ebp),%edx
    1726:	89 04 24             	mov    %eax,(%esp)
    1729:	89 54 24 04          	mov    %edx,0x4(%esp)
    172d:	e8 19 fa ff ff       	call   114b <getFileItem>
    1732:	89 45 f4             	mov    %eax,-0xc(%ebp)
	if (temp->chosen != 0)
    1735:	8b 45 f4             	mov    -0xc(%ebp),%eax
    1738:	8b 40 28             	mov    0x28(%eax),%eax
    173b:	85 c0                	test   %eax,%eax
    173d:	74 20                	je     175f <h_chooseFile+0x45>
	{
		printf(0, "chooseFile!\n");
    173f:	c7 44 24 04 b2 8a 00 	movl   $0x8ab2,0x4(%esp)
    1746:	00 
    1747:	c7 04 24 00 00 00 00 	movl   $0x0,(%esp)
    174e:	e8 1f 27 00 00       	call   3e72 <printf>
		temp->chosen = 0;
    1753:	8b 45 f4             	mov    -0xc(%ebp),%eax
    1756:	c7 40 28 00 00 00 00 	movl   $0x0,0x28(%eax)
    175d:	eb 1e                	jmp    177d <h_chooseFile+0x63>
	}
	else
	{
		printf(0, "unchooseFile!\n");
    175f:	c7 44 24 04 bf 8a 00 	movl   $0x8abf,0x4(%esp)
    1766:	00 
    1767:	c7 04 24 00 00 00 00 	movl   $0x0,(%esp)
    176e:	e8 ff 26 00 00       	call   3e72 <printf>
		temp->chosen = 1;
    1773:	8b 45 f4             	mov    -0xc(%ebp),%eax
    1776:	c7 40 28 01 00 00 00 	movl   $0x1,0x28(%eax)
	}
	drawFinderContent(context);
    177d:	a1 80 11 01 00       	mov    0x11180,%eax
    1782:	89 04 24             	mov    %eax,(%esp)
    1785:	a1 84 11 01 00       	mov    0x11184,%eax
    178a:	89 44 24 04          	mov    %eax,0x4(%esp)
    178e:	a1 88 11 01 00       	mov    0x11188,%eax
    1793:	89 44 24 08          	mov    %eax,0x8(%esp)
    1797:	e8 17 f3 ff ff       	call   ab3 <drawFinderContent>
}
    179c:	c9                   	leave  
    179d:	c3                   	ret    

0000179e <h_closeWnd>:

void h_closeWnd(Point p) {
    179e:	55                   	push   %ebp
    179f:	89 e5                	mov    %esp,%ebp
	isRun = 0;
    17a1:	c7 05 60 a3 00 00 00 	movl   $0x0,0xa360
    17a8:	00 00 00 
}
    17ab:	5d                   	pop    %ebp
    17ac:	c3                   	ret    

000017ad <h_chvm1>:

void h_chvm1(Point p) {
    17ad:	55                   	push   %ebp
    17ae:	89 e5                	mov    %esp,%ebp
    17b0:	83 ec 38             	sub    $0x38,%esp
	style = ICON_STYLE;
    17b3:	c7 05 64 a3 00 00 01 	movl   $0x1,0xa364
    17ba:	00 00 00 
	freeFileItemList();
    17bd:	e8 0f e9 ff ff       	call   d1 <freeFileItemList>
		list(".");
    17c2:	c7 04 24 75 8a 00 00 	movl   $0x8a75,(%esp)
    17c9:	e8 e1 e9 ff ff       	call   1af <list>
		drawFinderContent(context);
    17ce:	a1 80 11 01 00       	mov    0x11180,%eax
    17d3:	89 04 24             	mov    %eax,(%esp)
    17d6:	a1 84 11 01 00       	mov    0x11184,%eax
    17db:	89 44 24 04          	mov    %eax,0x4(%esp)
    17df:	a1 88 11 01 00       	mov    0x11188,%eax
    17e4:	89 44 24 08          	mov    %eax,0x8(%esp)
    17e8:	e8 c6 f2 ff ff       	call   ab3 <drawFinderContent>
			deleteClickable(&cm.left_click, initRect(0, 0, 800, 600));
    17ed:	8d 45 e8             	lea    -0x18(%ebp),%eax
    17f0:	c7 44 24 10 58 02 00 	movl   $0x258,0x10(%esp)
    17f7:	00 
    17f8:	c7 44 24 0c 20 03 00 	movl   $0x320,0xc(%esp)
    17ff:	00 
    1800:	c7 44 24 08 00 00 00 	movl   $0x0,0x8(%esp)
    1807:	00 
    1808:	c7 44 24 04 00 00 00 	movl   $0x0,0x4(%esp)
    180f:	00 
    1810:	89 04 24             	mov    %eax,(%esp)
    1813:	e8 26 1b 00 00       	call   333e <initRect>
    1818:	83 ec 04             	sub    $0x4,%esp
    181b:	8b 45 e8             	mov    -0x18(%ebp),%eax
    181e:	89 44 24 04          	mov    %eax,0x4(%esp)
    1822:	8b 45 ec             	mov    -0x14(%ebp),%eax
    1825:	89 44 24 08          	mov    %eax,0x8(%esp)
    1829:	8b 45 f0             	mov    -0x10(%ebp),%eax
    182c:	89 44 24 0c          	mov    %eax,0xc(%esp)
    1830:	8b 45 f4             	mov    -0xc(%ebp),%eax
    1833:	89 44 24 10          	mov    %eax,0x10(%esp)
    1837:	c7 04 24 8c 11 01 00 	movl   $0x1118c,(%esp)
    183e:	e8 fe 1c 00 00       	call   3541 <deleteClickable>
			addWndEvent(&cm);
    1843:	c7 04 24 8c 11 01 00 	movl   $0x1118c,(%esp)
    184a:	e8 36 f8 ff ff       	call   1085 <addWndEvent>
			addListEvent(&cm);
    184f:	c7 04 24 8c 11 01 00 	movl   $0x1118c,(%esp)
    1856:	e8 a2 f7 ff ff       	call   ffd <addListEvent>
}
    185b:	c9                   	leave  
    185c:	c3                   	ret    

0000185d <h_chvm2>:

void h_chvm2(Point p) {
    185d:	55                   	push   %ebp
    185e:	89 e5                	mov    %esp,%ebp
    1860:	83 ec 38             	sub    $0x38,%esp
	style = LIST_STYLE;
    1863:	c7 05 64 a3 00 00 02 	movl   $0x2,0xa364
    186a:	00 00 00 
	freeFileItemList();
    186d:	e8 5f e8 ff ff       	call   d1 <freeFileItemList>
		list(".");
    1872:	c7 04 24 75 8a 00 00 	movl   $0x8a75,(%esp)
    1879:	e8 31 e9 ff ff       	call   1af <list>
		drawFinderContent(context);
    187e:	a1 80 11 01 00       	mov    0x11180,%eax
    1883:	89 04 24             	mov    %eax,(%esp)
    1886:	a1 84 11 01 00       	mov    0x11184,%eax
    188b:	89 44 24 04          	mov    %eax,0x4(%esp)
    188f:	a1 88 11 01 00       	mov    0x11188,%eax
    1894:	89 44 24 08          	mov    %eax,0x8(%esp)
    1898:	e8 16 f2 ff ff       	call   ab3 <drawFinderContent>
			deleteClickable(&cm.left_click, initRect(0, 0, 800, 600));
    189d:	8d 45 e8             	lea    -0x18(%ebp),%eax
    18a0:	c7 44 24 10 58 02 00 	movl   $0x258,0x10(%esp)
    18a7:	00 
    18a8:	c7 44 24 0c 20 03 00 	movl   $0x320,0xc(%esp)
    18af:	00 
    18b0:	c7 44 24 08 00 00 00 	movl   $0x0,0x8(%esp)
    18b7:	00 
    18b8:	c7 44 24 04 00 00 00 	movl   $0x0,0x4(%esp)
    18bf:	00 
    18c0:	89 04 24             	mov    %eax,(%esp)
    18c3:	e8 76 1a 00 00       	call   333e <initRect>
    18c8:	83 ec 04             	sub    $0x4,%esp
    18cb:	8b 45 e8             	mov    -0x18(%ebp),%eax
    18ce:	89 44 24 04          	mov    %eax,0x4(%esp)
    18d2:	8b 45 ec             	mov    -0x14(%ebp),%eax
    18d5:	89 44 24 08          	mov    %eax,0x8(%esp)
    18d9:	8b 45 f0             	mov    -0x10(%ebp),%eax
    18dc:	89 44 24 0c          	mov    %eax,0xc(%esp)
    18e0:	8b 45 f4             	mov    -0xc(%ebp),%eax
    18e3:	89 44 24 10          	mov    %eax,0x10(%esp)
    18e7:	c7 04 24 8c 11 01 00 	movl   $0x1118c,(%esp)
    18ee:	e8 4e 1c 00 00       	call   3541 <deleteClickable>
			addWndEvent(&cm);
    18f3:	c7 04 24 8c 11 01 00 	movl   $0x1118c,(%esp)
    18fa:	e8 86 f7 ff ff       	call   1085 <addWndEvent>
			addListEvent(&cm);
    18ff:	c7 04 24 8c 11 01 00 	movl   $0x1118c,(%esp)
    1906:	e8 f2 f6 ff ff       	call   ffd <addListEvent>
}
    190b:	c9                   	leave  
    190c:	c3                   	ret    

0000190d <h_goUp>:

void h_goUp(Point p) {
    190d:	55                   	push   %ebp
    190e:	89 e5                	mov    %esp,%ebp
    1910:	83 ec 38             	sub    $0x38,%esp
	enterDir("..");
    1913:	c7 04 24 ce 8a 00 00 	movl   $0x8ace,(%esp)
    191a:	e8 8c f8 ff ff       	call   11ab <enterDir>
	freeFileItemList();
    191f:	e8 ad e7 ff ff       	call   d1 <freeFileItemList>
	list(".");
    1924:	c7 04 24 75 8a 00 00 	movl   $0x8a75,(%esp)
    192b:	e8 7f e8 ff ff       	call   1af <list>
	drawFinderContent(context);
    1930:	a1 80 11 01 00       	mov    0x11180,%eax
    1935:	89 04 24             	mov    %eax,(%esp)
    1938:	a1 84 11 01 00       	mov    0x11184,%eax
    193d:	89 44 24 04          	mov    %eax,0x4(%esp)
    1941:	a1 88 11 01 00       	mov    0x11188,%eax
    1946:	89 44 24 08          	mov    %eax,0x8(%esp)
    194a:	e8 64 f1 ff ff       	call   ab3 <drawFinderContent>
	deleteClickable(&cm.left_click, initRect(0, 0, 800, 600));
    194f:	8d 45 e8             	lea    -0x18(%ebp),%eax
    1952:	c7 44 24 10 58 02 00 	movl   $0x258,0x10(%esp)
    1959:	00 
    195a:	c7 44 24 0c 20 03 00 	movl   $0x320,0xc(%esp)
    1961:	00 
    1962:	c7 44 24 08 00 00 00 	movl   $0x0,0x8(%esp)
    1969:	00 
    196a:	c7 44 24 04 00 00 00 	movl   $0x0,0x4(%esp)
    1971:	00 
    1972:	89 04 24             	mov    %eax,(%esp)
    1975:	e8 c4 19 00 00       	call   333e <initRect>
    197a:	83 ec 04             	sub    $0x4,%esp
    197d:	8b 45 e8             	mov    -0x18(%ebp),%eax
    1980:	89 44 24 04          	mov    %eax,0x4(%esp)
    1984:	8b 45 ec             	mov    -0x14(%ebp),%eax
    1987:	89 44 24 08          	mov    %eax,0x8(%esp)
    198b:	8b 45 f0             	mov    -0x10(%ebp),%eax
    198e:	89 44 24 0c          	mov    %eax,0xc(%esp)
    1992:	8b 45 f4             	mov    -0xc(%ebp),%eax
    1995:	89 44 24 10          	mov    %eax,0x10(%esp)
    1999:	c7 04 24 8c 11 01 00 	movl   $0x1118c,(%esp)
    19a0:	e8 9c 1b 00 00       	call   3541 <deleteClickable>
	addWndEvent(&cm);
    19a5:	c7 04 24 8c 11 01 00 	movl   $0x1118c,(%esp)
    19ac:	e8 d4 f6 ff ff       	call   1085 <addWndEvent>
	addListEvent(&cm);
    19b1:	c7 04 24 8c 11 01 00 	movl   $0x1118c,(%esp)
    19b8:	e8 40 f6 ff ff       	call   ffd <addListEvent>
}
    19bd:	c9                   	leave  
    19be:	c3                   	ret    

000019bf <h_empty>:

void h_empty(Point p) {
    19bf:	55                   	push   %ebp
    19c0:	89 e5                	mov    %esp,%ebp

}
    19c2:	5d                   	pop    %ebp
    19c3:	c3                   	ret    

000019c4 <main>:

int main(int argc, char *argv[]) {
    19c4:	8d 4c 24 04          	lea    0x4(%esp),%ecx
    19c8:	83 e4 f0             	and    $0xfffffff0,%esp
    19cb:	ff 71 fc             	pushl  -0x4(%ecx)
    19ce:	55                   	push   %ebp
    19cf:	89 e5                	mov    %esp,%ebp
    19d1:	56                   	push   %esi
    19d2:	53                   	push   %ebx
    19d3:	51                   	push   %ecx
    19d4:	81 ec 8c 00 00 00    	sub    $0x8c,%esp
	int winid;
	struct Msg msg;

	Point p;

	winid = init_context(&context, WINDOW_WIDTH, WINDOW_HEIGHT);
    19da:	c7 44 24 08 c2 01 00 	movl   $0x1c2,0x8(%esp)
    19e1:	00 
    19e2:	c7 44 24 04 58 02 00 	movl   $0x258,0x4(%esp)
    19e9:	00 
    19ea:	c7 04 24 80 11 01 00 	movl   $0x11180,(%esp)
    19f1:	e8 12 04 00 00       	call   1e08 <init_context>
    19f6:	89 45 e4             	mov    %eax,-0x1c(%ebp)
	cm = initClickManager(context);
    19f9:	8d 45 88             	lea    -0x78(%ebp),%eax
    19fc:	8b 15 80 11 01 00    	mov    0x11180,%edx
    1a02:	89 54 24 04          	mov    %edx,0x4(%esp)
    1a06:	8b 15 84 11 01 00    	mov    0x11184,%edx
    1a0c:	89 54 24 08          	mov    %edx,0x8(%esp)
    1a10:	8b 15 88 11 01 00    	mov    0x11188,%edx
    1a16:	89 54 24 0c          	mov    %edx,0xc(%esp)
    1a1a:	89 04 24             	mov    %eax,(%esp)
    1a1d:	e8 ba 19 00 00       	call   33dc <initClickManager>
    1a22:	83 ec 04             	sub    $0x4,%esp
    1a25:	8b 45 88             	mov    -0x78(%ebp),%eax
    1a28:	a3 8c 11 01 00       	mov    %eax,0x1118c
    1a2d:	8b 45 8c             	mov    -0x74(%ebp),%eax
    1a30:	a3 90 11 01 00       	mov    %eax,0x11190
    1a35:	8b 45 90             	mov    -0x70(%ebp),%eax
    1a38:	a3 94 11 01 00       	mov    %eax,0x11194
    1a3d:	8b 45 94             	mov    -0x6c(%ebp),%eax
    1a40:	a3 98 11 01 00       	mov    %eax,0x11198
    1a45:	8b 45 98             	mov    -0x68(%ebp),%eax
    1a48:	a3 9c 11 01 00       	mov    %eax,0x1119c
	load_iconlist(wndRes, sizeof(wndRes) / sizeof(ICON));
    1a4d:	c7 44 24 04 08 00 00 	movl   $0x8,0x4(%esp)
    1a54:	00 
    1a55:	c7 04 24 60 a4 00 00 	movl   $0xa460,(%esp)
    1a5c:	e8 a1 0f 00 00       	call   2a02 <load_iconlist>
	load_iconlist(contentRes, sizeof(contentRes) / sizeof(ICON));
    1a61:	c7 44 24 04 04 00 00 	movl   $0x4,0x4(%esp)
    1a68:	00 
    1a69:	c7 04 24 80 a3 00 00 	movl   $0xa380,(%esp)
    1a70:	e8 8d 0f 00 00       	call   2a02 <load_iconlist>
	//testHandlers();
	mkdir("userfolder");
    1a75:	c7 04 24 d1 8a 00 00 	movl   $0x8ad1,(%esp)
    1a7c:	e8 71 22 00 00       	call   3cf2 <mkdir>
	enterDir("userfolder");
    1a81:	c7 04 24 d1 8a 00 00 	movl   $0x8ad1,(%esp)
    1a88:	e8 1e f7 ff ff       	call   11ab <enterDir>
	freeFileItemList();
    1a8d:	e8 3f e6 ff ff       	call   d1 <freeFileItemList>
	list(".");
    1a92:	c7 04 24 75 8a 00 00 	movl   $0x8a75,(%esp)
    1a99:	e8 11 e7 ff ff       	call   1af <list>
	deleteClickable(&cm.left_click, initRect(0, 0, 800, 600));
    1a9e:	8d 45 d4             	lea    -0x2c(%ebp),%eax
    1aa1:	c7 44 24 10 58 02 00 	movl   $0x258,0x10(%esp)
    1aa8:	00 
    1aa9:	c7 44 24 0c 20 03 00 	movl   $0x320,0xc(%esp)
    1ab0:	00 
    1ab1:	c7 44 24 08 00 00 00 	movl   $0x0,0x8(%esp)
    1ab8:	00 
    1ab9:	c7 44 24 04 00 00 00 	movl   $0x0,0x4(%esp)
    1ac0:	00 
    1ac1:	89 04 24             	mov    %eax,(%esp)
    1ac4:	e8 75 18 00 00       	call   333e <initRect>
    1ac9:	83 ec 04             	sub    $0x4,%esp
    1acc:	8b 45 d4             	mov    -0x2c(%ebp),%eax
    1acf:	89 44 24 04          	mov    %eax,0x4(%esp)
    1ad3:	8b 45 d8             	mov    -0x28(%ebp),%eax
    1ad6:	89 44 24 08          	mov    %eax,0x8(%esp)
    1ada:	8b 45 dc             	mov    -0x24(%ebp),%eax
    1add:	89 44 24 0c          	mov    %eax,0xc(%esp)
    1ae1:	8b 45 e0             	mov    -0x20(%ebp),%eax
    1ae4:	89 44 24 10          	mov    %eax,0x10(%esp)
    1ae8:	c7 04 24 8c 11 01 00 	movl   $0x1118c,(%esp)
    1aef:	e8 4d 1a 00 00       	call   3541 <deleteClickable>
	addWndEvent(&cm);
    1af4:	c7 04 24 8c 11 01 00 	movl   $0x1118c,(%esp)
    1afb:	e8 85 f5 ff ff       	call   1085 <addWndEvent>
	addListEvent(&cm);
    1b00:	c7 04 24 8c 11 01 00 	movl   $0x1118c,(%esp)
    1b07:	e8 f1 f4 ff ff       	call   ffd <addListEvent>
	while (isRun) {
    1b0c:	e9 c7 01 00 00       	jmp    1cd8 <main+0x314>
		getMsg(&msg);
    1b11:	8d 45 bc             	lea    -0x44(%ebp),%eax
    1b14:	89 04 24             	mov    %eax,(%esp)
    1b17:	e8 0e 22 00 00       	call   3d2a <getMsg>
		switch (msg.msg_type) {
    1b1c:	8b 45 bc             	mov    -0x44(%ebp),%eax
    1b1f:	83 f8 08             	cmp    $0x8,%eax
    1b22:	0f 87 af 01 00 00    	ja     1cd7 <main+0x313>
    1b28:	8b 04 85 dc 8a 00 00 	mov    0x8adc(,%eax,4),%eax
    1b2f:	ff e0                	jmp    *%eax
		case MSG_DOUBLECLICK:
			p = initPoint(msg.concrete_msg.msg_mouse.x,
    1b31:	8b 4d c4             	mov    -0x3c(%ebp),%ecx
    1b34:	8b 55 c0             	mov    -0x40(%ebp),%edx
    1b37:	8d 45 b4             	lea    -0x4c(%ebp),%eax
    1b3a:	89 4c 24 08          	mov    %ecx,0x8(%esp)
    1b3e:	89 54 24 04          	mov    %edx,0x4(%esp)
    1b42:	89 04 24             	mov    %eax,(%esp)
    1b45:	e8 cd 17 00 00       	call   3317 <initPoint>
    1b4a:	83 ec 04             	sub    $0x4,%esp
					msg.concrete_msg.msg_mouse.y);
			if (executeHandler(cm.double_click, p)) {
    1b4d:	8b 0d 90 11 01 00    	mov    0x11190,%ecx
    1b53:	8b 45 b4             	mov    -0x4c(%ebp),%eax
    1b56:	8b 55 b8             	mov    -0x48(%ebp),%edx
    1b59:	89 44 24 04          	mov    %eax,0x4(%esp)
    1b5d:	89 54 24 08          	mov    %edx,0x8(%esp)
    1b61:	89 0c 24             	mov    %ecx,(%esp)
    1b64:	e8 b8 1a 00 00       	call   3621 <executeHandler>
    1b69:	85 c0                	test   %eax,%eax
    1b6b:	74 19                	je     1b86 <main+0x1c2>
				updateWindow(winid, context.addr);
    1b6d:	a1 80 11 01 00       	mov    0x11180,%eax
    1b72:	89 44 24 04          	mov    %eax,0x4(%esp)
    1b76:	8b 45 e4             	mov    -0x1c(%ebp),%eax
    1b79:	89 04 24             	mov    %eax,(%esp)
    1b7c:	e8 c1 21 00 00       	call   3d42 <updateWindow>
			}
			break;
    1b81:	e9 52 01 00 00       	jmp    1cd8 <main+0x314>
    1b86:	e9 4d 01 00 00       	jmp    1cd8 <main+0x314>
		case MSG_UPDATE:
			//printf(0, "update event!\n");
			drawFinderWnd(context);
    1b8b:	a1 80 11 01 00       	mov    0x11180,%eax
    1b90:	89 04 24             	mov    %eax,(%esp)
    1b93:	a1 84 11 01 00       	mov    0x11184,%eax
    1b98:	89 44 24 04          	mov    %eax,0x4(%esp)
    1b9c:	a1 88 11 01 00       	mov    0x11188,%eax
    1ba1:	89 44 24 08          	mov    %eax,0x8(%esp)
    1ba5:	e8 07 ed ff ff       	call   8b1 <drawFinderWnd>
			drawFinderContent(context);
    1baa:	a1 80 11 01 00       	mov    0x11180,%eax
    1baf:	89 04 24             	mov    %eax,(%esp)
    1bb2:	a1 84 11 01 00       	mov    0x11184,%eax
    1bb7:	89 44 24 04          	mov    %eax,0x4(%esp)
    1bbb:	a1 88 11 01 00       	mov    0x11188,%eax
    1bc0:	89 44 24 08          	mov    %eax,0x8(%esp)
    1bc4:	e8 ea ee ff ff       	call   ab3 <drawFinderContent>
			updateWindow(winid, context.addr);
    1bc9:	a1 80 11 01 00       	mov    0x11180,%eax
    1bce:	89 44 24 04          	mov    %eax,0x4(%esp)
    1bd2:	8b 45 e4             	mov    -0x1c(%ebp),%eax
    1bd5:	89 04 24             	mov    %eax,(%esp)
    1bd8:	e8 65 21 00 00       	call   3d42 <updateWindow>
			break;
    1bdd:	e9 f6 00 00 00       	jmp    1cd8 <main+0x314>
		case MSG_PARTIAL_UPDATE:
			updatePartialWindow(winid, context.addr,
    1be2:	8b 75 cc             	mov    -0x34(%ebp),%esi
    1be5:	8b 5d c8             	mov    -0x38(%ebp),%ebx
    1be8:	8b 4d c4             	mov    -0x3c(%ebp),%ecx
    1beb:	8b 55 c0             	mov    -0x40(%ebp),%edx
    1bee:	a1 80 11 01 00       	mov    0x11180,%eax
    1bf3:	89 74 24 14          	mov    %esi,0x14(%esp)
    1bf7:	89 5c 24 10          	mov    %ebx,0x10(%esp)
    1bfb:	89 4c 24 0c          	mov    %ecx,0xc(%esp)
    1bff:	89 54 24 08          	mov    %edx,0x8(%esp)
    1c03:	89 44 24 04          	mov    %eax,0x4(%esp)
    1c07:	8b 45 e4             	mov    -0x1c(%ebp),%eax
    1c0a:	89 04 24             	mov    %eax,(%esp)
    1c0d:	e8 38 21 00 00       	call   3d4a <updatePartialWindow>
					msg.concrete_msg.msg_partial_update.x1,
					msg.concrete_msg.msg_partial_update.y1,
					msg.concrete_msg.msg_partial_update.x2,
					msg.concrete_msg.msg_partial_update.y2);
			break;
    1c12:	e9 c1 00 00 00       	jmp    1cd8 <main+0x314>
		case MSG_LPRESS:
			//printf(0, "left click event!\n");
			p = initPoint(msg.concrete_msg.msg_mouse.x,
    1c17:	8b 4d c4             	mov    -0x3c(%ebp),%ecx
    1c1a:	8b 55 c0             	mov    -0x40(%ebp),%edx
    1c1d:	8d 45 80             	lea    -0x80(%ebp),%eax
    1c20:	89 4c 24 08          	mov    %ecx,0x8(%esp)
    1c24:	89 54 24 04          	mov    %edx,0x4(%esp)
    1c28:	89 04 24             	mov    %eax,(%esp)
    1c2b:	e8 e7 16 00 00       	call   3317 <initPoint>
    1c30:	83 ec 04             	sub    $0x4,%esp
    1c33:	8b 45 80             	mov    -0x80(%ebp),%eax
    1c36:	8b 55 84             	mov    -0x7c(%ebp),%edx
    1c39:	89 45 b4             	mov    %eax,-0x4c(%ebp)
    1c3c:	89 55 b8             	mov    %edx,-0x48(%ebp)
					msg.concrete_msg.msg_mouse.y);
			if (executeHandler(cm.left_click, p)) {
    1c3f:	8b 0d 8c 11 01 00    	mov    0x1118c,%ecx
    1c45:	8b 45 b4             	mov    -0x4c(%ebp),%eax
    1c48:	8b 55 b8             	mov    -0x48(%ebp),%edx
    1c4b:	89 44 24 04          	mov    %eax,0x4(%esp)
    1c4f:	89 54 24 08          	mov    %edx,0x8(%esp)
    1c53:	89 0c 24             	mov    %ecx,(%esp)
    1c56:	e8 c6 19 00 00       	call   3621 <executeHandler>
    1c5b:	85 c0                	test   %eax,%eax
    1c5d:	74 16                	je     1c75 <main+0x2b1>

				updateWindow(winid, context.addr);
    1c5f:	a1 80 11 01 00       	mov    0x11180,%eax
    1c64:	89 44 24 04          	mov    %eax,0x4(%esp)
    1c68:	8b 45 e4             	mov    -0x1c(%ebp),%eax
    1c6b:	89 04 24             	mov    %eax,(%esp)
    1c6e:	e8 cf 20 00 00       	call   3d42 <updateWindow>
			}
			break;
    1c73:	eb 63                	jmp    1cd8 <main+0x314>
    1c75:	eb 61                	jmp    1cd8 <main+0x314>
		case MSG_RPRESS:
			p = initPoint(msg.concrete_msg.msg_mouse.x,
    1c77:	8b 4d c4             	mov    -0x3c(%ebp),%ecx
    1c7a:	8b 55 c0             	mov    -0x40(%ebp),%edx
    1c7d:	8d 45 80             	lea    -0x80(%ebp),%eax
    1c80:	89 4c 24 08          	mov    %ecx,0x8(%esp)
    1c84:	89 54 24 04          	mov    %edx,0x4(%esp)
    1c88:	89 04 24             	mov    %eax,(%esp)
    1c8b:	e8 87 16 00 00       	call   3317 <initPoint>
    1c90:	83 ec 04             	sub    $0x4,%esp
    1c93:	8b 45 80             	mov    -0x80(%ebp),%eax
    1c96:	8b 55 84             	mov    -0x7c(%ebp),%edx
    1c99:	89 45 b4             	mov    %eax,-0x4c(%ebp)
    1c9c:	89 55 b8             	mov    %edx,-0x48(%ebp)
					msg.concrete_msg.msg_mouse.y);
			if (executeHandler(cm.right_click, p)) {
    1c9f:	8b 0d 94 11 01 00    	mov    0x11194,%ecx
    1ca5:	8b 45 b4             	mov    -0x4c(%ebp),%eax
    1ca8:	8b 55 b8             	mov    -0x48(%ebp),%edx
    1cab:	89 44 24 04          	mov    %eax,0x4(%esp)
    1caf:	89 54 24 08          	mov    %edx,0x8(%esp)
    1cb3:	89 0c 24             	mov    %ecx,(%esp)
    1cb6:	e8 66 19 00 00       	call   3621 <executeHandler>
    1cbb:	85 c0                	test   %eax,%eax
    1cbd:	74 16                	je     1cd5 <main+0x311>
				updateWindow(winid, context.addr);
    1cbf:	a1 80 11 01 00       	mov    0x11180,%eax
    1cc4:	89 44 24 04          	mov    %eax,0x4(%esp)
    1cc8:	8b 45 e4             	mov    -0x1c(%ebp),%eax
    1ccb:	89 04 24             	mov    %eax,(%esp)
    1cce:	e8 6f 20 00 00       	call   3d42 <updateWindow>
			}
			break;
    1cd3:	eb 03                	jmp    1cd8 <main+0x314>
    1cd5:	eb 01                	jmp    1cd8 <main+0x314>
		default:
			break;
    1cd7:	90                   	nop
	freeFileItemList();
	list(".");
	deleteClickable(&cm.left_click, initRect(0, 0, 800, 600));
	addWndEvent(&cm);
	addListEvent(&cm);
	while (isRun) {
    1cd8:	a1 60 a3 00 00       	mov    0xa360,%eax
    1cdd:	85 c0                	test   %eax,%eax
    1cdf:	0f 85 2c fe ff ff    	jne    1b11 <main+0x14d>
			break;
		default:
			break;
		}
	}
	free_context(&context, winid);
    1ce5:	8b 45 e4             	mov    -0x1c(%ebp),%eax
    1ce8:	89 44 24 04          	mov    %eax,0x4(%esp)
    1cec:	c7 04 24 80 11 01 00 	movl   $0x11180,(%esp)
    1cf3:	e8 93 01 00 00       	call   1e8b <free_context>
	exit();
    1cf8:	e8 8d 1f 00 00       	call   3c8a <exit>

00001cfd <testHandlers>:
}

void testHandlers() {
    1cfd:	55                   	push   %ebp
    1cfe:	89 e5                	mov    %esp,%ebp
    1d00:	83 ec 18             	sub    $0x18,%esp

	list(".");
    1d03:	c7 04 24 75 8a 00 00 	movl   $0x8a75,(%esp)
    1d0a:	e8 a0 e4 ff ff       	call   1af <list>
	printf(0, "original list:\n");
    1d0f:	c7 44 24 04 00 8b 00 	movl   $0x8b00,0x4(%esp)
    1d16:	00 
    1d17:	c7 04 24 00 00 00 00 	movl   $0x0,(%esp)
    1d1e:	e8 4f 21 00 00       	call   3e72 <printf>
	printItemList();
    1d23:	e8 f6 f0 ff ff       	call   e1e <printItemList>
	printf(0, "\n");
    1d28:	c7 44 24 04 10 8b 00 	movl   $0x8b10,0x4(%esp)
    1d2f:	00 
    1d30:	c7 04 24 00 00 00 00 	movl   $0x0,(%esp)
    1d37:	e8 36 21 00 00       	call   3e72 <printf>
	printf(0, "new a folder:\n");
    1d3c:	c7 44 24 04 12 8b 00 	movl   $0x8b12,0x4(%esp)
    1d43:	00 
    1d44:	c7 04 24 00 00 00 00 	movl   $0x0,(%esp)
    1d4b:	e8 22 21 00 00       	call   3e72 <printf>
	newFolder("newfolder");
    1d50:	c7 04 24 21 8b 00 00 	movl   $0x8b21,(%esp)
    1d57:	e8 30 f7 ff ff       	call   148c <newFolder>
	freeFileItemList();
    1d5c:	e8 70 e3 ff ff       	call   d1 <freeFileItemList>
	list(".");
    1d61:	c7 04 24 75 8a 00 00 	movl   $0x8a75,(%esp)
    1d68:	e8 42 e4 ff ff       	call   1af <list>
	printItemList();
    1d6d:	e8 ac f0 ff ff       	call   e1e <printItemList>
	printf(0, "\n");
    1d72:	c7 44 24 04 10 8b 00 	movl   $0x8b10,0x4(%esp)
    1d79:	00 
    1d7a:	c7 04 24 00 00 00 00 	movl   $0x0,(%esp)
    1d81:	e8 ec 20 00 00       	call   3e72 <printf>
	printf(0, "enter new folder:\n");
    1d86:	c7 44 24 04 2b 8b 00 	movl   $0x8b2b,0x4(%esp)
    1d8d:	00 
    1d8e:	c7 04 24 00 00 00 00 	movl   $0x0,(%esp)
    1d95:	e8 d8 20 00 00       	call   3e72 <printf>
	enterDir("newfolder");
    1d9a:	c7 04 24 21 8b 00 00 	movl   $0x8b21,(%esp)
    1da1:	e8 05 f4 ff ff       	call   11ab <enterDir>
	freeFileItemList();
    1da6:	e8 26 e3 ff ff       	call   d1 <freeFileItemList>
	list(".");
    1dab:	c7 04 24 75 8a 00 00 	movl   $0x8a75,(%esp)
    1db2:	e8 f8 e3 ff ff       	call   1af <list>
	printItemList();
    1db7:	e8 62 f0 ff ff       	call   e1e <printItemList>
	printf(0, "\n");
    1dbc:	c7 44 24 04 10 8b 00 	movl   $0x8b10,0x4(%esp)
    1dc3:	00 
    1dc4:	c7 04 24 00 00 00 00 	movl   $0x0,(%esp)
    1dcb:	e8 a2 20 00 00       	call   3e72 <printf>
	printf(0, "new a file:\n");
    1dd0:	c7 44 24 04 3e 8b 00 	movl   $0x8b3e,0x4(%esp)
    1dd7:	00 
    1dd8:	c7 04 24 00 00 00 00 	movl   $0x0,(%esp)
    1ddf:	e8 8e 20 00 00       	call   3e72 <printf>
	newFile("newfile.txt");
    1de4:	c7 04 24 4b 8b 00 00 	movl   $0x8b4b,(%esp)
    1deb:	e8 d1 f4 ff ff       	call   12c1 <newFile>
	freeFileItemList();
    1df0:	e8 dc e2 ff ff       	call   d1 <freeFileItemList>
	list(".");
    1df5:	c7 04 24 75 8a 00 00 	movl   $0x8a75,(%esp)
    1dfc:	e8 ae e3 ff ff       	call   1af <list>
	printItemList();
    1e01:	e8 18 f0 ff ff       	call   e1e <printItemList>
//	printf(0, "enter last folder:\n");
//	enterDir("..");
//	freeFileItemList();
//	list(".");
//	printItemList();
}
    1e06:	c9                   	leave  
    1e07:	c3                   	ret    

00001e08 <init_context>:
#include "stat.h"
#include "user.h"
#include "drawingAPI.h"

int init_context(struct Context* context_ptr, int width, int height)
{
    1e08:	55                   	push   %ebp
    1e09:	89 e5                	mov    %esp,%ebp
    1e0b:	83 ec 18             	sub    $0x18,%esp
    context_ptr->width = width;
    1e0e:	8b 45 08             	mov    0x8(%ebp),%eax
    1e11:	8b 55 0c             	mov    0xc(%ebp),%edx
    1e14:	89 50 04             	mov    %edx,0x4(%eax)
    context_ptr->height = height;
    1e17:	8b 45 08             	mov    0x8(%ebp),%eax
    1e1a:	8b 55 10             	mov    0x10(%ebp),%edx
    1e1d:	89 50 08             	mov    %edx,0x8(%eax)
    context_ptr->addr = (unsigned short*)malloc(sizeof(unsigned short) * width * height);
    1e20:	8b 55 0c             	mov    0xc(%ebp),%edx
    1e23:	8b 45 10             	mov    0x10(%ebp),%eax
    1e26:	0f af c2             	imul   %edx,%eax
    1e29:	01 c0                	add    %eax,%eax
    1e2b:	89 04 24             	mov    %eax,(%esp)
    1e2e:	e8 2b 23 00 00       	call   415e <malloc>
    1e33:	8b 55 08             	mov    0x8(%ebp),%edx
    1e36:	89 02                	mov    %eax,(%edx)
    memset(context_ptr->addr, 0, sizeof(unsigned short) * width * height);
    1e38:	8b 55 0c             	mov    0xc(%ebp),%edx
    1e3b:	8b 45 10             	mov    0x10(%ebp),%eax
    1e3e:	0f af c2             	imul   %edx,%eax
    1e41:	8d 14 00             	lea    (%eax,%eax,1),%edx
    1e44:	8b 45 08             	mov    0x8(%ebp),%eax
    1e47:	8b 00                	mov    (%eax),%eax
    1e49:	89 54 24 08          	mov    %edx,0x8(%esp)
    1e4d:	c7 44 24 04 00 00 00 	movl   $0x0,0x4(%esp)
    1e54:	00 
    1e55:	89 04 24             	mov    %eax,(%esp)
    1e58:	e8 80 1c 00 00       	call   3add <memset>
    initializeASCII();
    1e5d:	e8 93 01 00 00       	call   1ff5 <initializeASCII>
    initializeGBK();
    1e62:	e8 17 03 00 00       	call   217e <initializeGBK>
    return createWindow(0, 0, width, height);
    1e67:	8b 45 10             	mov    0x10(%ebp),%eax
    1e6a:	89 44 24 0c          	mov    %eax,0xc(%esp)
    1e6e:	8b 45 0c             	mov    0xc(%ebp),%eax
    1e71:	89 44 24 08          	mov    %eax,0x8(%esp)
    1e75:	c7 44 24 04 00 00 00 	movl   $0x0,0x4(%esp)
    1e7c:	00 
    1e7d:	c7 04 24 00 00 00 00 	movl   $0x0,(%esp)
    1e84:	e8 a9 1e 00 00       	call   3d32 <createWindow>
}
    1e89:	c9                   	leave  
    1e8a:	c3                   	ret    

00001e8b <free_context>:

void free_context(struct Context* context_ptr, int winid)
{
    1e8b:	55                   	push   %ebp
    1e8c:	89 e5                	mov    %esp,%ebp
    1e8e:	83 ec 18             	sub    $0x18,%esp
    free(context_ptr->addr);
    1e91:	8b 45 08             	mov    0x8(%ebp),%eax
    1e94:	8b 00                	mov    (%eax),%eax
    1e96:	89 04 24             	mov    %eax,(%esp)
    1e99:	e8 87 21 00 00       	call   4025 <free>
    freeASCII();
    1e9e:	e8 c6 02 00 00       	call   2169 <freeASCII>
    freeGBK();
    1ea3:	e8 7e 03 00 00       	call   2226 <freeGBK>
    destroyWindow(winid);
    1ea8:	8b 45 0c             	mov    0xc(%ebp),%eax
    1eab:	89 04 24             	mov    %eax,(%esp)
    1eae:	e8 87 1e 00 00       	call   3d3a <destroyWindow>
}
    1eb3:	c9                   	leave  
    1eb4:	c3                   	ret    

00001eb5 <draw_point>:
*             then do nothing!
*/

void 
draw_point(struct Context c, unsigned int x, unsigned int y, unsigned short color)
{
    1eb5:	55                   	push   %ebp
    1eb6:	89 e5                	mov    %esp,%ebp
    1eb8:	83 ec 04             	sub    $0x4,%esp
    1ebb:	8b 45 1c             	mov    0x1c(%ebp),%eax
    1ebe:	66 89 45 fc          	mov    %ax,-0x4(%ebp)
  if(x >= c.width) 
    1ec2:	8b 45 0c             	mov    0xc(%ebp),%eax
    1ec5:	3b 45 14             	cmp    0x14(%ebp),%eax
    1ec8:	77 02                	ja     1ecc <draw_point+0x17>
    return;
    1eca:	eb 26                	jmp    1ef2 <draw_point+0x3d>
  if(y >= c.height)
    1ecc:	8b 45 10             	mov    0x10(%ebp),%eax
    1ecf:	3b 45 18             	cmp    0x18(%ebp),%eax
    1ed2:	77 02                	ja     1ed6 <draw_point+0x21>
    return;
    1ed4:	eb 1c                	jmp    1ef2 <draw_point+0x3d>
  c.addr[y*c.width+x] = color;
    1ed6:	8b 55 08             	mov    0x8(%ebp),%edx
    1ed9:	8b 45 0c             	mov    0xc(%ebp),%eax
    1edc:	0f af 45 18          	imul   0x18(%ebp),%eax
    1ee0:	89 c1                	mov    %eax,%ecx
    1ee2:	8b 45 14             	mov    0x14(%ebp),%eax
    1ee5:	01 c8                	add    %ecx,%eax
    1ee7:	01 c0                	add    %eax,%eax
    1ee9:	01 c2                	add    %eax,%edx
    1eeb:	0f b7 45 fc          	movzwl -0x4(%ebp),%eax
    1eef:	66 89 02             	mov    %ax,(%edx)
}
    1ef2:	c9                   	leave  
    1ef3:	c3                   	ret    

00001ef4 <fill_rect>:
/*
*fill_rect: set a rect area with a certain color
*/
void
fill_rect(struct Context c, unsigned int bx, unsigned int by, unsigned int width, unsigned int height, unsigned short color)
{
    1ef4:	55                   	push   %ebp
    1ef5:	89 e5                	mov    %esp,%ebp
    1ef7:	83 ec 2c             	sub    $0x2c,%esp
    1efa:	8b 45 24             	mov    0x24(%ebp),%eax
    1efd:	66 89 45 ec          	mov    %ax,-0x14(%ebp)
	int x, y;
	int mx = c.width < bx + width ? c.width : bx + width;
    1f01:	8b 45 1c             	mov    0x1c(%ebp),%eax
    1f04:	8b 55 14             	mov    0x14(%ebp),%edx
    1f07:	01 c2                	add    %eax,%edx
    1f09:	8b 45 0c             	mov    0xc(%ebp),%eax
    1f0c:	39 c2                	cmp    %eax,%edx
    1f0e:	0f 46 c2             	cmovbe %edx,%eax
    1f11:	89 45 f4             	mov    %eax,-0xc(%ebp)
	int my = c.height < by + height ? c.height : by + height; 
    1f14:	8b 45 20             	mov    0x20(%ebp),%eax
    1f17:	8b 55 18             	mov    0x18(%ebp),%edx
    1f1a:	01 c2                	add    %eax,%edx
    1f1c:	8b 45 10             	mov    0x10(%ebp),%eax
    1f1f:	39 c2                	cmp    %eax,%edx
    1f21:	0f 46 c2             	cmovbe %edx,%eax
    1f24:	89 45 f0             	mov    %eax,-0x10(%ebp)
	for (y = by; y < my; y++)
    1f27:	8b 45 18             	mov    0x18(%ebp),%eax
    1f2a:	89 45 f8             	mov    %eax,-0x8(%ebp)
    1f2d:	eb 47                	jmp    1f76 <fill_rect+0x82>
	{
		for (x = bx; x < mx; x++)
    1f2f:	8b 45 14             	mov    0x14(%ebp),%eax
    1f32:	89 45 fc             	mov    %eax,-0x4(%ebp)
    1f35:	eb 33                	jmp    1f6a <fill_rect+0x76>
		{
			draw_point(c, x, y, color);
    1f37:	0f b7 4d ec          	movzwl -0x14(%ebp),%ecx
    1f3b:	8b 55 f8             	mov    -0x8(%ebp),%edx
    1f3e:	8b 45 fc             	mov    -0x4(%ebp),%eax
    1f41:	89 4c 24 14          	mov    %ecx,0x14(%esp)
    1f45:	89 54 24 10          	mov    %edx,0x10(%esp)
    1f49:	89 44 24 0c          	mov    %eax,0xc(%esp)
    1f4d:	8b 45 08             	mov    0x8(%ebp),%eax
    1f50:	89 04 24             	mov    %eax,(%esp)
    1f53:	8b 45 0c             	mov    0xc(%ebp),%eax
    1f56:	89 44 24 04          	mov    %eax,0x4(%esp)
    1f5a:	8b 45 10             	mov    0x10(%ebp),%eax
    1f5d:	89 44 24 08          	mov    %eax,0x8(%esp)
    1f61:	e8 4f ff ff ff       	call   1eb5 <draw_point>
	int x, y;
	int mx = c.width < bx + width ? c.width : bx + width;
	int my = c.height < by + height ? c.height : by + height; 
	for (y = by; y < my; y++)
	{
		for (x = bx; x < mx; x++)
    1f66:	83 45 fc 01          	addl   $0x1,-0x4(%ebp)
    1f6a:	8b 45 fc             	mov    -0x4(%ebp),%eax
    1f6d:	3b 45 f4             	cmp    -0xc(%ebp),%eax
    1f70:	7c c5                	jl     1f37 <fill_rect+0x43>
fill_rect(struct Context c, unsigned int bx, unsigned int by, unsigned int width, unsigned int height, unsigned short color)
{
	int x, y;
	int mx = c.width < bx + width ? c.width : bx + width;
	int my = c.height < by + height ? c.height : by + height; 
	for (y = by; y < my; y++)
    1f72:	83 45 f8 01          	addl   $0x1,-0x8(%ebp)
    1f76:	8b 45 f8             	mov    -0x8(%ebp),%eax
    1f79:	3b 45 f0             	cmp    -0x10(%ebp),%eax
    1f7c:	7c b1                	jl     1f2f <fill_rect+0x3b>
		for (x = bx; x < mx; x++)
		{
			draw_point(c, x, y, color);
		}
	}
}
    1f7e:	c9                   	leave  
    1f7f:	c3                   	ret    

00001f80 <printBinary>:

void printBinary(char c)
{
    1f80:	55                   	push   %ebp
    1f81:	89 e5                	mov    %esp,%ebp
    1f83:	83 ec 28             	sub    $0x28,%esp
    1f86:	8b 45 08             	mov    0x8(%ebp),%eax
    1f89:	88 45 e4             	mov    %al,-0x1c(%ebp)
	int i;
	for (i = 0; i < 8; i++)
    1f8c:	c7 45 f4 00 00 00 00 	movl   $0x0,-0xc(%ebp)
    1f93:	eb 44                	jmp    1fd9 <printBinary+0x59>
	{
		if(((c << i) & 0x80) != 0)
    1f95:	0f be 55 e4          	movsbl -0x1c(%ebp),%edx
    1f99:	8b 45 f4             	mov    -0xc(%ebp),%eax
    1f9c:	89 c1                	mov    %eax,%ecx
    1f9e:	d3 e2                	shl    %cl,%edx
    1fa0:	89 d0                	mov    %edx,%eax
    1fa2:	25 80 00 00 00       	and    $0x80,%eax
    1fa7:	85 c0                	test   %eax,%eax
    1fa9:	74 16                	je     1fc1 <printBinary+0x41>
		{
			printf(0, "1");
    1fab:	c7 44 24 04 57 8b 00 	movl   $0x8b57,0x4(%esp)
    1fb2:	00 
    1fb3:	c7 04 24 00 00 00 00 	movl   $0x0,(%esp)
    1fba:	e8 b3 1e 00 00       	call   3e72 <printf>
    1fbf:	eb 14                	jmp    1fd5 <printBinary+0x55>
		}
		else
		{
			printf(0, "0");
    1fc1:	c7 44 24 04 59 8b 00 	movl   $0x8b59,0x4(%esp)
    1fc8:	00 
    1fc9:	c7 04 24 00 00 00 00 	movl   $0x0,(%esp)
    1fd0:	e8 9d 1e 00 00       	call   3e72 <printf>
}

void printBinary(char c)
{
	int i;
	for (i = 0; i < 8; i++)
    1fd5:	83 45 f4 01          	addl   $0x1,-0xc(%ebp)
    1fd9:	83 7d f4 07          	cmpl   $0x7,-0xc(%ebp)
    1fdd:	7e b6                	jle    1f95 <printBinary+0x15>
		{
			printf(0, "0");
		}
	}

	printf(0, "\n");
    1fdf:	c7 44 24 04 5b 8b 00 	movl   $0x8b5b,0x4(%esp)
    1fe6:	00 
    1fe7:	c7 04 24 00 00 00 00 	movl   $0x0,(%esp)
    1fee:	e8 7f 1e 00 00       	call   3e72 <printf>
}
    1ff3:	c9                   	leave  
    1ff4:	c3                   	ret    

00001ff5 <initializeASCII>:
char buf[512];
//hankaku是一个数组，将hankaku.txt文件中的每一行转化成一个8位整数（unsigned short）
//每16个整数可以代表一个字符
unsigned char *hankaku;
void initializeASCII()
{
    1ff5:	55                   	push   %ebp
    1ff6:	89 e5                	mov    %esp,%ebp
    1ff8:	56                   	push   %esi
    1ff9:	53                   	push   %ebx
    1ffa:	83 ec 30             	sub    $0x30,%esp

	int fd, n, i;
	int x, y;
	printf(0,"initialzing ASCII\n");
    1ffd:	c7 44 24 04 5d 8b 00 	movl   $0x8b5d,0x4(%esp)
    2004:	00 
    2005:	c7 04 24 00 00 00 00 	movl   $0x0,(%esp)
    200c:	e8 61 1e 00 00       	call   3e72 <printf>
	//打开hankaku.txt文件
	if((fd = open(HANKAKU, 0)) < 0){
    2011:	c7 44 24 04 00 00 00 	movl   $0x0,0x4(%esp)
    2018:	00 
    2019:	c7 04 24 70 8b 00 00 	movl   $0x8b70,(%esp)
    2020:	e8 a5 1c 00 00       	call   3cca <open>
    2025:	89 45 e8             	mov    %eax,-0x18(%ebp)
    2028:	83 7d e8 00          	cmpl   $0x0,-0x18(%ebp)
    202c:	79 21                	jns    204f <initializeASCII+0x5a>
	  printf(0,"cannot open %s\n", HANKAKU);
    202e:	c7 44 24 08 70 8b 00 	movl   $0x8b70,0x8(%esp)
    2035:	00 
    2036:	c7 44 24 04 7c 8b 00 	movl   $0x8b7c,0x4(%esp)
    203d:	00 
    203e:	c7 04 24 00 00 00 00 	movl   $0x0,(%esp)
    2045:	e8 28 1e 00 00       	call   3e72 <printf>
	  return;
    204a:	e9 13 01 00 00       	jmp    2162 <initializeASCII+0x16d>
	}
	//申请hankaku数组
	hankaku = malloc(ASCII_NUM*ASCII_HEIGHT);
    204f:	c7 04 24 00 10 00 00 	movl   $0x1000,(%esp)
    2056:	e8 03 21 00 00       	call   415e <malloc>
    205b:	a3 a0 11 01 00       	mov    %eax,0x111a0
	for (i = 0; i < ASCII_NUM; i++)
    2060:	c7 45 f4 00 00 00 00 	movl   $0x0,-0xc(%ebp)
    2067:	eb 12                	jmp    207b <initializeASCII+0x86>
	{
		hankaku[i] = 0;
    2069:	8b 15 a0 11 01 00    	mov    0x111a0,%edx
    206f:	8b 45 f4             	mov    -0xc(%ebp),%eax
    2072:	01 d0                	add    %edx,%eax
    2074:	c6 00 00             	movb   $0x0,(%eax)
	  printf(0,"cannot open %s\n", HANKAKU);
	  return;
	}
	//申请hankaku数组
	hankaku = malloc(ASCII_NUM*ASCII_HEIGHT);
	for (i = 0; i < ASCII_NUM; i++)
    2077:	83 45 f4 01          	addl   $0x1,-0xc(%ebp)
    207b:	81 7d f4 ff 00 00 00 	cmpl   $0xff,-0xc(%ebp)
    2082:	7e e5                	jle    2069 <initializeASCII+0x74>

	//不断读取文件，如果读到的字符是“*/."，就按顺序记录到hankaku数组中
	//y表示当前记录到第几行（对应于hankaku数组里的第几个数），x表示当前记录到第几列
	//如果当前字符是"*",则对应第y个数第x位置为1
	//每当x == ASCII_WIDTH，x重新置为0, y++
	x = 0;
    2084:	c7 45 f0 00 00 00 00 	movl   $0x0,-0x10(%ebp)
	y = 0;
    208b:	c7 45 ec 00 00 00 00 	movl   $0x0,-0x14(%ebp)
	while((n = read(fd, buf, sizeof(buf))) > 0)
    2092:	e9 84 00 00 00       	jmp    211b <initializeASCII+0x126>
	{
		for (i = 0; i < n; i++){
    2097:	c7 45 f4 00 00 00 00 	movl   $0x0,-0xc(%ebp)
    209e:	eb 73                	jmp    2113 <initializeASCII+0x11e>
			//printf(0,"%c, %d", buf[i], i);
			if (buf[i] == '*' || buf[i] == '.')
    20a0:	8b 45 f4             	mov    -0xc(%ebp),%eax
    20a3:	05 c0 11 01 00       	add    $0x111c0,%eax
    20a8:	0f b6 00             	movzbl (%eax),%eax
    20ab:	3c 2a                	cmp    $0x2a,%al
    20ad:	74 0f                	je     20be <initializeASCII+0xc9>
    20af:	8b 45 f4             	mov    -0xc(%ebp),%eax
    20b2:	05 c0 11 01 00       	add    $0x111c0,%eax
    20b7:	0f b6 00             	movzbl (%eax),%eax
    20ba:	3c 2e                	cmp    $0x2e,%al
    20bc:	75 51                	jne    210f <initializeASCII+0x11a>
			{
				if (buf[i] == '*')
    20be:	8b 45 f4             	mov    -0xc(%ebp),%eax
    20c1:	05 c0 11 01 00       	add    $0x111c0,%eax
    20c6:	0f b6 00             	movzbl (%eax),%eax
    20c9:	3c 2a                	cmp    $0x2a,%al
    20cb:	75 2d                	jne    20fa <initializeASCII+0x105>
				{
					hankaku[y] |= (0x80 >> x);
    20cd:	8b 15 a0 11 01 00    	mov    0x111a0,%edx
    20d3:	8b 45 ec             	mov    -0x14(%ebp),%eax
    20d6:	01 c2                	add    %eax,%edx
    20d8:	8b 0d a0 11 01 00    	mov    0x111a0,%ecx
    20de:	8b 45 ec             	mov    -0x14(%ebp),%eax
    20e1:	01 c8                	add    %ecx,%eax
    20e3:	0f b6 00             	movzbl (%eax),%eax
    20e6:	89 c3                	mov    %eax,%ebx
    20e8:	8b 45 f0             	mov    -0x10(%ebp),%eax
    20eb:	be 80 00 00 00       	mov    $0x80,%esi
    20f0:	89 c1                	mov    %eax,%ecx
    20f2:	d3 fe                	sar    %cl,%esi
    20f4:	89 f0                	mov    %esi,%eax
    20f6:	09 d8                	or     %ebx,%eax
    20f8:	88 02                	mov    %al,(%edx)
				}
				x ++;
    20fa:	83 45 f0 01          	addl   $0x1,-0x10(%ebp)
				if (x >= ASCII_WIDTH)
    20fe:	83 7d f0 07          	cmpl   $0x7,-0x10(%ebp)
    2102:	7e 0b                	jle    210f <initializeASCII+0x11a>
				{
					x = 0;
    2104:	c7 45 f0 00 00 00 00 	movl   $0x0,-0x10(%ebp)
					y ++;
    210b:	83 45 ec 01          	addl   $0x1,-0x14(%ebp)
	//每当x == ASCII_WIDTH，x重新置为0, y++
	x = 0;
	y = 0;
	while((n = read(fd, buf, sizeof(buf))) > 0)
	{
		for (i = 0; i < n; i++){
    210f:	83 45 f4 01          	addl   $0x1,-0xc(%ebp)
    2113:	8b 45 f4             	mov    -0xc(%ebp),%eax
    2116:	3b 45 e4             	cmp    -0x1c(%ebp),%eax
    2119:	7c 85                	jl     20a0 <initializeASCII+0xab>
	//y表示当前记录到第几行（对应于hankaku数组里的第几个数），x表示当前记录到第几列
	//如果当前字符是"*",则对应第y个数第x位置为1
	//每当x == ASCII_WIDTH，x重新置为0, y++
	x = 0;
	y = 0;
	while((n = read(fd, buf, sizeof(buf))) > 0)
    211b:	c7 44 24 08 00 02 00 	movl   $0x200,0x8(%esp)
    2122:	00 
    2123:	c7 44 24 04 c0 11 01 	movl   $0x111c0,0x4(%esp)
    212a:	00 
    212b:	8b 45 e8             	mov    -0x18(%ebp),%eax
    212e:	89 04 24             	mov    %eax,(%esp)
    2131:	e8 6c 1b 00 00       	call   3ca2 <read>
    2136:	89 45 e4             	mov    %eax,-0x1c(%ebp)
    2139:	83 7d e4 00          	cmpl   $0x0,-0x1c(%ebp)
    213d:	0f 8f 54 ff ff ff    	jg     2097 <initializeASCII+0xa2>

//	for (i = 0; i < ASCII_NUM * ASCII_HEIGHT; i++)
//	{
//		printBinary(hankaku[i]);
//	}
	printf(0,"initialzing ASCII complete!\n");
    2143:	c7 44 24 04 8c 8b 00 	movl   $0x8b8c,0x4(%esp)
    214a:	00 
    214b:	c7 04 24 00 00 00 00 	movl   $0x0,(%esp)
    2152:	e8 1b 1d 00 00       	call   3e72 <printf>
	close(fd);
    2157:	8b 45 e8             	mov    -0x18(%ebp),%eax
    215a:	89 04 24             	mov    %eax,(%esp)
    215d:	e8 50 1b 00 00       	call   3cb2 <close>
}
    2162:	83 c4 30             	add    $0x30,%esp
    2165:	5b                   	pop    %ebx
    2166:	5e                   	pop    %esi
    2167:	5d                   	pop    %ebp
    2168:	c3                   	ret    

00002169 <freeASCII>:

void freeASCII(){
    2169:	55                   	push   %ebp
    216a:	89 e5                	mov    %esp,%ebp
    216c:	83 ec 18             	sub    $0x18,%esp
	free(hankaku);
    216f:	a1 a0 11 01 00       	mov    0x111a0,%eax
    2174:	89 04 24             	mov    %eax,(%esp)
    2177:	e8 a9 1e 00 00       	call   4025 <free>
}
    217c:	c9                   	leave  
    217d:	c3                   	ret    

0000217e <initializeGBK>:

struct File_Node fontFile;
void initializeGBK(){
    217e:	55                   	push   %ebp
    217f:	89 e5                	mov    %esp,%ebp
    2181:	83 ec 28             	sub    $0x28,%esp
	int fd;
	printf(0,"initialzing gbk\n");
    2184:	c7 44 24 04 a9 8b 00 	movl   $0x8ba9,0x4(%esp)
    218b:	00 
    218c:	c7 04 24 00 00 00 00 	movl   $0x0,(%esp)
    2193:	e8 da 1c 00 00       	call   3e72 <printf>
	if((fd = open(HZK16, 0)) < 0){
    2198:	c7 44 24 04 00 00 00 	movl   $0x0,0x4(%esp)
    219f:	00 
    21a0:	c7 04 24 ba 8b 00 00 	movl   $0x8bba,(%esp)
    21a7:	e8 1e 1b 00 00       	call   3cca <open>
    21ac:	89 45 f4             	mov    %eax,-0xc(%ebp)
    21af:	83 7d f4 00          	cmpl   $0x0,-0xc(%ebp)
    21b3:	79 1e                	jns    21d3 <initializeGBK+0x55>
		printf(0,"cannot open %s\n", HZK16);
    21b5:	c7 44 24 08 ba 8b 00 	movl   $0x8bba,0x8(%esp)
    21bc:	00 
    21bd:	c7 44 24 04 7c 8b 00 	movl   $0x8b7c,0x4(%esp)
    21c4:	00 
    21c5:	c7 04 24 00 00 00 00 	movl   $0x0,(%esp)
    21cc:	e8 a1 1c 00 00       	call   3e72 <printf>
		return;
    21d1:	eb 51                	jmp    2224 <initializeGBK+0xa6>
	}
	fontFile.buf = malloc(27000*sizeof(unsigned char));
    21d3:	c7 04 24 78 69 00 00 	movl   $0x6978,(%esp)
    21da:	e8 7f 1f 00 00       	call   415e <malloc>
    21df:	a3 a4 11 01 00       	mov    %eax,0x111a4
	fontFile.size = read(fd, fontFile.buf, 27000);
    21e4:	a1 a4 11 01 00       	mov    0x111a4,%eax
    21e9:	c7 44 24 08 78 69 00 	movl   $0x6978,0x8(%esp)
    21f0:	00 
    21f1:	89 44 24 04          	mov    %eax,0x4(%esp)
    21f5:	8b 45 f4             	mov    -0xc(%ebp),%eax
    21f8:	89 04 24             	mov    %eax,(%esp)
    21fb:	e8 a2 1a 00 00       	call   3ca2 <read>
    2200:	a3 a8 11 01 00       	mov    %eax,0x111a8
	printf(0,"initialzing gbk complete!\n");
    2205:	c7 44 24 04 c4 8b 00 	movl   $0x8bc4,0x4(%esp)
    220c:	00 
    220d:	c7 04 24 00 00 00 00 	movl   $0x0,(%esp)
    2214:	e8 59 1c 00 00       	call   3e72 <printf>
	close(fd);
    2219:	8b 45 f4             	mov    -0xc(%ebp),%eax
    221c:	89 04 24             	mov    %eax,(%esp)
    221f:	e8 8e 1a 00 00       	call   3cb2 <close>
}
    2224:	c9                   	leave  
    2225:	c3                   	ret    

00002226 <freeGBK>:

void freeGBK(){
    2226:	55                   	push   %ebp
    2227:	89 e5                	mov    %esp,%ebp
    2229:	83 ec 18             	sub    $0x18,%esp
	free(fontFile.buf);
    222c:	a1 a4 11 01 00       	mov    0x111a4,%eax
    2231:	89 04 24             	mov    %eax,(%esp)
    2234:	e8 ec 1d 00 00       	call   4025 <free>
}
    2239:	c9                   	leave  
    223a:	c3                   	ret    

0000223b <put_ascii>:

void put_ascii(struct Context c, unsigned char ascii, unsigned short colorNum, int x, int y)
{
    223b:	55                   	push   %ebp
    223c:	89 e5                	mov    %esp,%ebp
    223e:	53                   	push   %ebx
    223f:	83 ec 30             	sub    $0x30,%esp
    2242:	8b 55 14             	mov    0x14(%ebp),%edx
    2245:	8b 45 18             	mov    0x18(%ebp),%eax
    2248:	88 55 e8             	mov    %dl,-0x18(%ebp)
    224b:	66 89 45 e4          	mov    %ax,-0x1c(%ebp)
	int tmpX, tmpY;
	//printf(0, "put ascii: %c, color: %d\n", ascii, colorNum);
	for(tmpY = y; tmpY < y + 16; tmpY++) {
    224f:	8b 45 20             	mov    0x20(%ebp),%eax
    2252:	89 45 f4             	mov    %eax,-0xc(%ebp)
    2255:	eb 7f                	jmp    22d6 <put_ascii+0x9b>
		for(tmpX = 0; tmpX < 8; tmpX++) {
    2257:	c7 45 f8 00 00 00 00 	movl   $0x0,-0x8(%ebp)
    225e:	eb 6c                	jmp    22cc <put_ascii+0x91>
			if((((hankaku + (ascii * 16))[tmpY - y] << tmpX) & 0x80) == 0x80) {
    2260:	a1 a0 11 01 00       	mov    0x111a0,%eax
    2265:	0f b6 55 e8          	movzbl -0x18(%ebp),%edx
    2269:	c1 e2 04             	shl    $0x4,%edx
    226c:	89 d1                	mov    %edx,%ecx
    226e:	8b 55 20             	mov    0x20(%ebp),%edx
    2271:	8b 5d f4             	mov    -0xc(%ebp),%ebx
    2274:	29 d3                	sub    %edx,%ebx
    2276:	89 da                	mov    %ebx,%edx
    2278:	01 ca                	add    %ecx,%edx
    227a:	01 d0                	add    %edx,%eax
    227c:	0f b6 00             	movzbl (%eax),%eax
    227f:	0f b6 d0             	movzbl %al,%edx
    2282:	8b 45 f8             	mov    -0x8(%ebp),%eax
    2285:	89 c1                	mov    %eax,%ecx
    2287:	d3 e2                	shl    %cl,%edx
    2289:	89 d0                	mov    %edx,%eax
    228b:	25 80 00 00 00       	and    $0x80,%eax
    2290:	85 c0                	test   %eax,%eax
    2292:	74 34                	je     22c8 <put_ascii+0x8d>
				//printf(0, "x: %d, y: %d\n", x + tmpX, tmpY);
				draw_point(c, x + tmpX, tmpY, colorNum);
    2294:	0f b7 4d e4          	movzwl -0x1c(%ebp),%ecx
    2298:	8b 55 f4             	mov    -0xc(%ebp),%edx
    229b:	8b 45 f8             	mov    -0x8(%ebp),%eax
    229e:	8b 5d 1c             	mov    0x1c(%ebp),%ebx
    22a1:	01 d8                	add    %ebx,%eax
    22a3:	89 4c 24 14          	mov    %ecx,0x14(%esp)
    22a7:	89 54 24 10          	mov    %edx,0x10(%esp)
    22ab:	89 44 24 0c          	mov    %eax,0xc(%esp)
    22af:	8b 45 08             	mov    0x8(%ebp),%eax
    22b2:	89 04 24             	mov    %eax,(%esp)
    22b5:	8b 45 0c             	mov    0xc(%ebp),%eax
    22b8:	89 44 24 04          	mov    %eax,0x4(%esp)
    22bc:	8b 45 10             	mov    0x10(%ebp),%eax
    22bf:	89 44 24 08          	mov    %eax,0x8(%esp)
    22c3:	e8 ed fb ff ff       	call   1eb5 <draw_point>
void put_ascii(struct Context c, unsigned char ascii, unsigned short colorNum, int x, int y)
{
	int tmpX, tmpY;
	//printf(0, "put ascii: %c, color: %d\n", ascii, colorNum);
	for(tmpY = y; tmpY < y + 16; tmpY++) {
		for(tmpX = 0; tmpX < 8; tmpX++) {
    22c8:	83 45 f8 01          	addl   $0x1,-0x8(%ebp)
    22cc:	83 7d f8 07          	cmpl   $0x7,-0x8(%ebp)
    22d0:	7e 8e                	jle    2260 <put_ascii+0x25>

void put_ascii(struct Context c, unsigned char ascii, unsigned short colorNum, int x, int y)
{
	int tmpX, tmpY;
	//printf(0, "put ascii: %c, color: %d\n", ascii, colorNum);
	for(tmpY = y; tmpY < y + 16; tmpY++) {
    22d2:	83 45 f4 01          	addl   $0x1,-0xc(%ebp)
    22d6:	8b 45 20             	mov    0x20(%ebp),%eax
    22d9:	83 c0 10             	add    $0x10,%eax
    22dc:	3b 45 f4             	cmp    -0xc(%ebp),%eax
    22df:	0f 8f 72 ff ff ff    	jg     2257 <put_ascii+0x1c>
				draw_point(c, x + tmpX, tmpY, colorNum);
				//sheet->buf[tmpY * sheet->width + x + tmpX] = colorNum;
			}
		}
	}
}
    22e5:	83 c4 30             	add    $0x30,%esp
    22e8:	5b                   	pop    %ebx
    22e9:	5d                   	pop    %ebp
    22ea:	c3                   	ret    

000022eb <put_gbk>:

void put_gbk(struct Context c, short gbk, unsigned short colorNum, int x, int y)
{
    22eb:	55                   	push   %ebp
    22ec:	89 e5                	mov    %esp,%ebp
    22ee:	53                   	push   %ebx
    22ef:	83 ec 34             	sub    $0x34,%esp
    22f2:	8b 55 14             	mov    0x14(%ebp),%edx
    22f5:	8b 45 18             	mov    0x18(%ebp),%eax
    22f8:	66 89 55 e8          	mov    %dx,-0x18(%ebp)
    22fc:	66 89 45 e4          	mov    %ax,-0x1c(%ebp)
	int tmpX, tmpY;
	unsigned int offset;
	unsigned char *hzk16Base;
	if((gbk & 0x00FF) >= 0xA1 && ((gbk >> 8) & 0x00FF) >= 0xA1) {
    2300:	0f bf 45 e8          	movswl -0x18(%ebp),%eax
    2304:	0f b6 c0             	movzbl %al,%eax
    2307:	3d a0 00 00 00       	cmp    $0xa0,%eax
    230c:	0f 8e 40 01 00 00    	jle    2452 <put_gbk+0x167>
    2312:	0f b7 45 e8          	movzwl -0x18(%ebp),%eax
    2316:	66 c1 f8 08          	sar    $0x8,%ax
    231a:	98                   	cwtl   
    231b:	0f b6 c0             	movzbl %al,%eax
    231e:	3d a0 00 00 00       	cmp    $0xa0,%eax
    2323:	0f 8e 29 01 00 00    	jle    2452 <put_gbk+0x167>
		hzk16Base = fontFile.buf;
    2329:	a1 a4 11 01 00       	mov    0x111a4,%eax
    232e:	89 45 ec             	mov    %eax,-0x14(%ebp)
		offset = (((gbk & 0x00FF) - 0xa1) * 94 + (((gbk >> 8) & 0x00FF) - 0xa1)) * 32;
    2331:	0f bf 45 e8          	movswl -0x18(%ebp),%eax
    2335:	0f b6 c0             	movzbl %al,%eax
    2338:	2d a1 00 00 00       	sub    $0xa1,%eax
    233d:	6b c0 5e             	imul   $0x5e,%eax,%eax
    2340:	0f b7 55 e8          	movzwl -0x18(%ebp),%edx
    2344:	66 c1 fa 08          	sar    $0x8,%dx
    2348:	0f bf d2             	movswl %dx,%edx
    234b:	0f b6 d2             	movzbl %dl,%edx
    234e:	81 ea a1 00 00 00    	sub    $0xa1,%edx
    2354:	01 d0                	add    %edx,%eax
    2356:	c1 e0 05             	shl    $0x5,%eax
    2359:	89 45 f0             	mov    %eax,-0x10(%ebp)

		for(tmpY = y; tmpY < 16 + y; tmpY++) {
    235c:	8b 45 20             	mov    0x20(%ebp),%eax
    235f:	89 45 f4             	mov    %eax,-0xc(%ebp)
    2362:	e9 da 00 00 00       	jmp    2441 <put_gbk+0x156>
			for(tmpX = 0; tmpX < 8; tmpX++) {
    2367:	c7 45 f8 00 00 00 00 	movl   $0x0,-0x8(%ebp)
    236e:	eb 58                	jmp    23c8 <put_gbk+0xdd>
				if(((hzk16Base[offset] << tmpX) & 0x80) == 0x80) {
    2370:	8b 45 f0             	mov    -0x10(%ebp),%eax
    2373:	8b 55 ec             	mov    -0x14(%ebp),%edx
    2376:	01 d0                	add    %edx,%eax
    2378:	0f b6 00             	movzbl (%eax),%eax
    237b:	0f b6 d0             	movzbl %al,%edx
    237e:	8b 45 f8             	mov    -0x8(%ebp),%eax
    2381:	89 c1                	mov    %eax,%ecx
    2383:	d3 e2                	shl    %cl,%edx
    2385:	89 d0                	mov    %edx,%eax
    2387:	25 80 00 00 00       	and    $0x80,%eax
    238c:	85 c0                	test   %eax,%eax
    238e:	74 34                	je     23c4 <put_gbk+0xd9>
					draw_point(c, x + tmpX, tmpY, colorNum);
    2390:	0f b7 4d e4          	movzwl -0x1c(%ebp),%ecx
    2394:	8b 55 f4             	mov    -0xc(%ebp),%edx
    2397:	8b 45 f8             	mov    -0x8(%ebp),%eax
    239a:	8b 5d 1c             	mov    0x1c(%ebp),%ebx
    239d:	01 d8                	add    %ebx,%eax
    239f:	89 4c 24 14          	mov    %ecx,0x14(%esp)
    23a3:	89 54 24 10          	mov    %edx,0x10(%esp)
    23a7:	89 44 24 0c          	mov    %eax,0xc(%esp)
    23ab:	8b 45 08             	mov    0x8(%ebp),%eax
    23ae:	89 04 24             	mov    %eax,(%esp)
    23b1:	8b 45 0c             	mov    0xc(%ebp),%eax
    23b4:	89 44 24 04          	mov    %eax,0x4(%esp)
    23b8:	8b 45 10             	mov    0x10(%ebp),%eax
    23bb:	89 44 24 08          	mov    %eax,0x8(%esp)
    23bf:	e8 f1 fa ff ff       	call   1eb5 <draw_point>
	if((gbk & 0x00FF) >= 0xA1 && ((gbk >> 8) & 0x00FF) >= 0xA1) {
		hzk16Base = fontFile.buf;
		offset = (((gbk & 0x00FF) - 0xa1) * 94 + (((gbk >> 8) & 0x00FF) - 0xa1)) * 32;

		for(tmpY = y; tmpY < 16 + y; tmpY++) {
			for(tmpX = 0; tmpX < 8; tmpX++) {
    23c4:	83 45 f8 01          	addl   $0x1,-0x8(%ebp)
    23c8:	83 7d f8 07          	cmpl   $0x7,-0x8(%ebp)
    23cc:	7e a2                	jle    2370 <put_gbk+0x85>
				if(((hzk16Base[offset] << tmpX) & 0x80) == 0x80) {
					draw_point(c, x + tmpX, tmpY, colorNum);
					//sheet->buf[tmpY * sheet->width + x + tmpX] = colorNum;
				}
			}
			offset++;
    23ce:	83 45 f0 01          	addl   $0x1,-0x10(%ebp)
			for(tmpX = 0; tmpX < 8; tmpX++) {
    23d2:	c7 45 f8 00 00 00 00 	movl   $0x0,-0x8(%ebp)
    23d9:	eb 58                	jmp    2433 <put_gbk+0x148>
				if(((hzk16Base[offset] << tmpX) & 0x80) == 0x80) {
    23db:	8b 45 f0             	mov    -0x10(%ebp),%eax
    23de:	8b 55 ec             	mov    -0x14(%ebp),%edx
    23e1:	01 d0                	add    %edx,%eax
    23e3:	0f b6 00             	movzbl (%eax),%eax
    23e6:	0f b6 d0             	movzbl %al,%edx
    23e9:	8b 45 f8             	mov    -0x8(%ebp),%eax
    23ec:	89 c1                	mov    %eax,%ecx
    23ee:	d3 e2                	shl    %cl,%edx
    23f0:	89 d0                	mov    %edx,%eax
    23f2:	25 80 00 00 00       	and    $0x80,%eax
    23f7:	85 c0                	test   %eax,%eax
    23f9:	74 34                	je     242f <put_gbk+0x144>
					draw_point(c, x + tmpX, tmpY, colorNum);
    23fb:	0f b7 4d e4          	movzwl -0x1c(%ebp),%ecx
    23ff:	8b 55 f4             	mov    -0xc(%ebp),%edx
    2402:	8b 45 f8             	mov    -0x8(%ebp),%eax
    2405:	8b 5d 1c             	mov    0x1c(%ebp),%ebx
    2408:	01 d8                	add    %ebx,%eax
    240a:	89 4c 24 14          	mov    %ecx,0x14(%esp)
    240e:	89 54 24 10          	mov    %edx,0x10(%esp)
    2412:	89 44 24 0c          	mov    %eax,0xc(%esp)
    2416:	8b 45 08             	mov    0x8(%ebp),%eax
    2419:	89 04 24             	mov    %eax,(%esp)
    241c:	8b 45 0c             	mov    0xc(%ebp),%eax
    241f:	89 44 24 04          	mov    %eax,0x4(%esp)
    2423:	8b 45 10             	mov    0x10(%ebp),%eax
    2426:	89 44 24 08          	mov    %eax,0x8(%esp)
    242a:	e8 86 fa ff ff       	call   1eb5 <draw_point>
					draw_point(c, x + tmpX, tmpY, colorNum);
					//sheet->buf[tmpY * sheet->width + x + tmpX] = colorNum;
				}
			}
			offset++;
			for(tmpX = 0; tmpX < 8; tmpX++) {
    242f:	83 45 f8 01          	addl   $0x1,-0x8(%ebp)
    2433:	83 7d f8 07          	cmpl   $0x7,-0x8(%ebp)
    2437:	7e a2                	jle    23db <put_gbk+0xf0>
				if(((hzk16Base[offset] << tmpX) & 0x80) == 0x80) {
					draw_point(c, x + tmpX, tmpY, colorNum);
					//sheet->buf[tmpY * sheet->width + x + tmpX + 8] = colorNum;
				}
			}
			offset++;
    2439:	83 45 f0 01          	addl   $0x1,-0x10(%ebp)
	unsigned char *hzk16Base;
	if((gbk & 0x00FF) >= 0xA1 && ((gbk >> 8) & 0x00FF) >= 0xA1) {
		hzk16Base = fontFile.buf;
		offset = (((gbk & 0x00FF) - 0xa1) * 94 + (((gbk >> 8) & 0x00FF) - 0xa1)) * 32;

		for(tmpY = y; tmpY < 16 + y; tmpY++) {
    243d:	83 45 f4 01          	addl   $0x1,-0xc(%ebp)
    2441:	8b 45 20             	mov    0x20(%ebp),%eax
    2444:	83 c0 10             	add    $0x10,%eax
    2447:	3b 45 f4             	cmp    -0xc(%ebp),%eax
    244a:	0f 8f 17 ff ff ff    	jg     2367 <put_gbk+0x7c>
void put_gbk(struct Context c, short gbk, unsigned short colorNum, int x, int y)
{
	int tmpX, tmpY;
	unsigned int offset;
	unsigned char *hzk16Base;
	if((gbk & 0x00FF) >= 0xA1 && ((gbk >> 8) & 0x00FF) >= 0xA1) {
    2450:	eb 7b                	jmp    24cd <put_gbk+0x1e2>
			}
			offset++;
		}
	}
	else {
		put_ascii(c, (gbk & 0x00FF), colorNum, x, y);
    2452:	0f b7 55 e4          	movzwl -0x1c(%ebp),%edx
    2456:	0f b7 45 e8          	movzwl -0x18(%ebp),%eax
    245a:	0f b6 c0             	movzbl %al,%eax
    245d:	8b 4d 20             	mov    0x20(%ebp),%ecx
    2460:	89 4c 24 18          	mov    %ecx,0x18(%esp)
    2464:	8b 4d 1c             	mov    0x1c(%ebp),%ecx
    2467:	89 4c 24 14          	mov    %ecx,0x14(%esp)
    246b:	89 54 24 10          	mov    %edx,0x10(%esp)
    246f:	89 44 24 0c          	mov    %eax,0xc(%esp)
    2473:	8b 45 08             	mov    0x8(%ebp),%eax
    2476:	89 04 24             	mov    %eax,(%esp)
    2479:	8b 45 0c             	mov    0xc(%ebp),%eax
    247c:	89 44 24 04          	mov    %eax,0x4(%esp)
    2480:	8b 45 10             	mov    0x10(%ebp),%eax
    2483:	89 44 24 08          	mov    %eax,0x8(%esp)
    2487:	e8 af fd ff ff       	call   223b <put_ascii>
		put_ascii(c, ((gbk >> 8) & 0x00FF), colorNum, x + 8, y);
    248c:	8b 45 1c             	mov    0x1c(%ebp),%eax
    248f:	8d 58 08             	lea    0x8(%eax),%ebx
    2492:	0f b7 55 e4          	movzwl -0x1c(%ebp),%edx
    2496:	0f b7 45 e8          	movzwl -0x18(%ebp),%eax
    249a:	66 c1 f8 08          	sar    $0x8,%ax
    249e:	0f b6 c0             	movzbl %al,%eax
    24a1:	8b 4d 20             	mov    0x20(%ebp),%ecx
    24a4:	89 4c 24 18          	mov    %ecx,0x18(%esp)
    24a8:	89 5c 24 14          	mov    %ebx,0x14(%esp)
    24ac:	89 54 24 10          	mov    %edx,0x10(%esp)
    24b0:	89 44 24 0c          	mov    %eax,0xc(%esp)
    24b4:	8b 45 08             	mov    0x8(%ebp),%eax
    24b7:	89 04 24             	mov    %eax,(%esp)
    24ba:	8b 45 0c             	mov    0xc(%ebp),%eax
    24bd:	89 44 24 04          	mov    %eax,0x4(%esp)
    24c1:	8b 45 10             	mov    0x10(%ebp),%eax
    24c4:	89 44 24 08          	mov    %eax,0x8(%esp)
    24c8:	e8 6e fd ff ff       	call   223b <put_ascii>
	}
}
    24cd:	83 c4 34             	add    $0x34,%esp
    24d0:	5b                   	pop    %ebx
    24d1:	5d                   	pop    %ebp
    24d2:	c3                   	ret    

000024d3 <puts_str>:

void puts_str(struct Context c, char *str, unsigned short colorNum, int x, int y)
{
    24d3:	55                   	push   %ebp
    24d4:	89 e5                	mov    %esp,%ebp
    24d6:	83 ec 38             	sub    $0x38,%esp
    24d9:	8b 45 18             	mov    0x18(%ebp),%eax
    24dc:	66 89 45 e4          	mov    %ax,-0x1c(%ebp)
	//printf(0,"puts string : %s\n", str);
	int i = 0, xTmp;
    24e0:	c7 45 f4 00 00 00 00 	movl   $0x0,-0xc(%ebp)
	short wStr;
	uint rowLetterCnt;

	rowLetterCnt = strlen(str);
    24e7:	8b 45 14             	mov    0x14(%ebp),%eax
    24ea:	89 04 24             	mov    %eax,(%esp)
    24ed:	e8 c4 15 00 00       	call   3ab6 <strlen>
    24f2:	89 45 ec             	mov    %eax,-0x14(%ebp)
	for(i = 0, xTmp = x; i < rowLetterCnt;) {
    24f5:	c7 45 f4 00 00 00 00 	movl   $0x0,-0xc(%ebp)
    24fc:	8b 45 1c             	mov    0x1c(%ebp),%eax
    24ff:	89 45 f0             	mov    %eax,-0x10(%ebp)
    2502:	eb 49                	jmp    254d <puts_str+0x7a>
		if(str[i] < 0xA1) {
			put_ascii(c, str[i], colorNum, xTmp, y);
    2504:	0f b7 55 e4          	movzwl -0x1c(%ebp),%edx
    2508:	8b 4d f4             	mov    -0xc(%ebp),%ecx
    250b:	8b 45 14             	mov    0x14(%ebp),%eax
    250e:	01 c8                	add    %ecx,%eax
    2510:	0f b6 00             	movzbl (%eax),%eax
    2513:	0f b6 c0             	movzbl %al,%eax
    2516:	8b 4d 20             	mov    0x20(%ebp),%ecx
    2519:	89 4c 24 18          	mov    %ecx,0x18(%esp)
    251d:	8b 4d f0             	mov    -0x10(%ebp),%ecx
    2520:	89 4c 24 14          	mov    %ecx,0x14(%esp)
    2524:	89 54 24 10          	mov    %edx,0x10(%esp)
    2528:	89 44 24 0c          	mov    %eax,0xc(%esp)
    252c:	8b 45 08             	mov    0x8(%ebp),%eax
    252f:	89 04 24             	mov    %eax,(%esp)
    2532:	8b 45 0c             	mov    0xc(%ebp),%eax
    2535:	89 44 24 04          	mov    %eax,0x4(%esp)
    2539:	8b 45 10             	mov    0x10(%ebp),%eax
    253c:	89 44 24 08          	mov    %eax,0x8(%esp)
    2540:	e8 f6 fc ff ff       	call   223b <put_ascii>
			xTmp += 8;
    2545:	83 45 f0 08          	addl   $0x8,-0x10(%ebp)
			i++;
    2549:	83 45 f4 01          	addl   $0x1,-0xc(%ebp)
	int i = 0, xTmp;
	short wStr;
	uint rowLetterCnt;

	rowLetterCnt = strlen(str);
	for(i = 0, xTmp = x; i < rowLetterCnt;) {
    254d:	8b 45 f4             	mov    -0xc(%ebp),%eax
    2550:	3b 45 ec             	cmp    -0x14(%ebp),%eax
    2553:	72 af                	jb     2504 <puts_str+0x31>
			put_gbk(c, wStr, colorNum, xTmp, y);
			xTmp += 16;
			i += 2;
		}
	}
}
    2555:	c9                   	leave  
    2556:	c3                   	ret    

00002557 <_RGB16BIT565>:

int _RGB16BIT565(int r,int g,int b){
    2557:	55                   	push   %ebp
    2558:	89 e5                	mov    %esp,%ebp
	return ((b / 8)+((g / 4)<<5)+((r / 8)<<11));
    255a:	8b 45 10             	mov    0x10(%ebp),%eax
    255d:	8d 50 07             	lea    0x7(%eax),%edx
    2560:	85 c0                	test   %eax,%eax
    2562:	0f 48 c2             	cmovs  %edx,%eax
    2565:	c1 f8 03             	sar    $0x3,%eax
    2568:	89 c2                	mov    %eax,%edx
    256a:	8b 45 0c             	mov    0xc(%ebp),%eax
    256d:	8d 48 03             	lea    0x3(%eax),%ecx
    2570:	85 c0                	test   %eax,%eax
    2572:	0f 48 c1             	cmovs  %ecx,%eax
    2575:	c1 f8 02             	sar    $0x2,%eax
    2578:	c1 e0 05             	shl    $0x5,%eax
    257b:	8d 0c 02             	lea    (%edx,%eax,1),%ecx
    257e:	8b 45 08             	mov    0x8(%ebp),%eax
    2581:	8d 50 07             	lea    0x7(%eax),%edx
    2584:	85 c0                	test   %eax,%eax
    2586:	0f 48 c2             	cmovs  %edx,%eax
    2589:	c1 f8 03             	sar    $0x3,%eax
    258c:	c1 e0 0b             	shl    $0xb,%eax
    258f:	01 c8                	add    %ecx,%eax
}
    2591:	5d                   	pop    %ebp
    2592:	c3                   	ret    

00002593 <draw_picture>:

void draw_picture(Context c, PICNODE pic, int x, int y)
{
    2593:	55                   	push   %ebp
    2594:	89 e5                	mov    %esp,%ebp
    2596:	53                   	push   %ebx
    2597:	83 ec 28             	sub    $0x28,%esp
	int i, j;
	unsigned short color;
	RGBQUAD rgb;
	for (i = 0; i < pic.height; i++)
    259a:	c7 45 f8 00 00 00 00 	movl   $0x0,-0x8(%ebp)
    25a1:	e9 b1 00 00 00       	jmp    2657 <draw_picture+0xc4>
	{
		for (j = 0; j < pic.width; j++)
    25a6:	c7 45 f4 00 00 00 00 	movl   $0x0,-0xc(%ebp)
    25ad:	e9 95 00 00 00       	jmp    2647 <draw_picture+0xb4>
		{
			rgb = pic.data[i*pic.width+j];
    25b2:	8b 55 14             	mov    0x14(%ebp),%edx
    25b5:	8b 45 18             	mov    0x18(%ebp),%eax
    25b8:	0f af 45 f8          	imul   -0x8(%ebp),%eax
    25bc:	89 c1                	mov    %eax,%ecx
    25be:	8b 45 f4             	mov    -0xc(%ebp),%eax
    25c1:	01 c8                	add    %ecx,%eax
    25c3:	c1 e0 02             	shl    $0x2,%eax
    25c6:	01 d0                	add    %edx,%eax
    25c8:	8b 00                	mov    (%eax),%eax
    25ca:	89 45 ee             	mov    %eax,-0x12(%ebp)
			if (rgb.rgbReserved == 1) continue;
    25cd:	0f b6 45 f1          	movzbl -0xf(%ebp),%eax
    25d1:	3c 01                	cmp    $0x1,%al
    25d3:	75 02                	jne    25d7 <draw_picture+0x44>
    25d5:	eb 6c                	jmp    2643 <draw_picture+0xb0>
			color = (unsigned short)_RGB16BIT565(rgb.rgbRed, rgb.rgbGreen, rgb.rgbBlue);
    25d7:	0f b6 45 ee          	movzbl -0x12(%ebp),%eax
    25db:	0f b6 c8             	movzbl %al,%ecx
    25de:	0f b6 45 ef          	movzbl -0x11(%ebp),%eax
    25e2:	0f b6 d0             	movzbl %al,%edx
    25e5:	0f b6 45 f0          	movzbl -0x10(%ebp),%eax
    25e9:	0f b6 c0             	movzbl %al,%eax
    25ec:	89 4c 24 08          	mov    %ecx,0x8(%esp)
    25f0:	89 54 24 04          	mov    %edx,0x4(%esp)
    25f4:	89 04 24             	mov    %eax,(%esp)
    25f7:	e8 5b ff ff ff       	call   2557 <_RGB16BIT565>
    25fc:	66 89 45 f2          	mov    %ax,-0xe(%ebp)
			draw_point(c, j + x, pic.height - 1 - i + y, color);
    2600:	0f b7 4d f2          	movzwl -0xe(%ebp),%ecx
    2604:	8b 45 1c             	mov    0x1c(%ebp),%eax
    2607:	83 e8 01             	sub    $0x1,%eax
    260a:	2b 45 f8             	sub    -0x8(%ebp),%eax
    260d:	89 c2                	mov    %eax,%edx
    260f:	8b 45 24             	mov    0x24(%ebp),%eax
    2612:	01 d0                	add    %edx,%eax
    2614:	89 c2                	mov    %eax,%edx
    2616:	8b 45 20             	mov    0x20(%ebp),%eax
    2619:	8b 5d f4             	mov    -0xc(%ebp),%ebx
    261c:	01 d8                	add    %ebx,%eax
    261e:	89 4c 24 14          	mov    %ecx,0x14(%esp)
    2622:	89 54 24 10          	mov    %edx,0x10(%esp)
    2626:	89 44 24 0c          	mov    %eax,0xc(%esp)
    262a:	8b 45 08             	mov    0x8(%ebp),%eax
    262d:	89 04 24             	mov    %eax,(%esp)
    2630:	8b 45 0c             	mov    0xc(%ebp),%eax
    2633:	89 44 24 04          	mov    %eax,0x4(%esp)
    2637:	8b 45 10             	mov    0x10(%ebp),%eax
    263a:	89 44 24 08          	mov    %eax,0x8(%esp)
    263e:	e8 72 f8 ff ff       	call   1eb5 <draw_point>
	int i, j;
	unsigned short color;
	RGBQUAD rgb;
	for (i = 0; i < pic.height; i++)
	{
		for (j = 0; j < pic.width; j++)
    2643:	83 45 f4 01          	addl   $0x1,-0xc(%ebp)
    2647:	8b 45 18             	mov    0x18(%ebp),%eax
    264a:	3b 45 f4             	cmp    -0xc(%ebp),%eax
    264d:	0f 8f 5f ff ff ff    	jg     25b2 <draw_picture+0x1f>
void draw_picture(Context c, PICNODE pic, int x, int y)
{
	int i, j;
	unsigned short color;
	RGBQUAD rgb;
	for (i = 0; i < pic.height; i++)
    2653:	83 45 f8 01          	addl   $0x1,-0x8(%ebp)
    2657:	8b 45 1c             	mov    0x1c(%ebp),%eax
    265a:	3b 45 f8             	cmp    -0x8(%ebp),%eax
    265d:	0f 8f 43 ff ff ff    	jg     25a6 <draw_picture+0x13>
			if (rgb.rgbReserved == 1) continue;
			color = (unsigned short)_RGB16BIT565(rgb.rgbRed, rgb.rgbGreen, rgb.rgbBlue);
			draw_point(c, j + x, pic.height - 1 - i + y, color);
		}
	}
}
    2663:	83 c4 28             	add    $0x28,%esp
    2666:	5b                   	pop    %ebx
    2667:	5d                   	pop    %ebp
    2668:	c3                   	ret    

00002669 <draw_line>:

void draw_line(Context c, int x0, int y0, int x1, int y1, unsigned short color)
{
    2669:	55                   	push   %ebp
    266a:	89 e5                	mov    %esp,%ebp
    266c:	83 ec 3c             	sub    $0x3c,%esp
    266f:	8b 45 24             	mov    0x24(%ebp),%eax
    2672:	66 89 45 dc          	mov    %ax,-0x24(%ebp)
	int dx, dy, x, y, len, i;
	dx = x1 - x0;
    2676:	8b 45 14             	mov    0x14(%ebp),%eax
    2679:	8b 55 1c             	mov    0x1c(%ebp),%edx
    267c:	29 c2                	sub    %eax,%edx
    267e:	89 d0                	mov    %edx,%eax
    2680:	89 45 fc             	mov    %eax,-0x4(%ebp)
	dy = y1 - y0;
    2683:	8b 45 18             	mov    0x18(%ebp),%eax
    2686:	8b 55 20             	mov    0x20(%ebp),%edx
    2689:	29 c2                	sub    %eax,%edx
    268b:	89 d0                	mov    %edx,%eax
    268d:	89 45 f8             	mov    %eax,-0x8(%ebp)
	x = x0 << 10;
    2690:	8b 45 14             	mov    0x14(%ebp),%eax
    2693:	c1 e0 0a             	shl    $0xa,%eax
    2696:	89 45 f4             	mov    %eax,-0xc(%ebp)
	y = y0 << 10;
    2699:	8b 45 18             	mov    0x18(%ebp),%eax
    269c:	c1 e0 0a             	shl    $0xa,%eax
    269f:	89 45 f0             	mov    %eax,-0x10(%ebp)
	dx = (dx < 0) ? -dx : dx;
    26a2:	8b 45 fc             	mov    -0x4(%ebp),%eax
    26a5:	c1 f8 1f             	sar    $0x1f,%eax
    26a8:	31 45 fc             	xor    %eax,-0x4(%ebp)
    26ab:	29 45 fc             	sub    %eax,-0x4(%ebp)
	dy = (dy < 0) ? -dy : dy;
    26ae:	8b 45 f8             	mov    -0x8(%ebp),%eax
    26b1:	c1 f8 1f             	sar    $0x1f,%eax
    26b4:	31 45 f8             	xor    %eax,-0x8(%ebp)
    26b7:	29 45 f8             	sub    %eax,-0x8(%ebp)
	if(dx >= dy) {
    26ba:	8b 45 fc             	mov    -0x4(%ebp),%eax
    26bd:	3b 45 f8             	cmp    -0x8(%ebp),%eax
    26c0:	7c 57                	jl     2719 <draw_line+0xb0>
		len = dx + 1;
    26c2:	8b 45 fc             	mov    -0x4(%ebp),%eax
    26c5:	83 c0 01             	add    $0x1,%eax
    26c8:	89 45 ec             	mov    %eax,-0x14(%ebp)
		dx = (x1 > x0) ? 1024 : -1024;
    26cb:	8b 45 1c             	mov    0x1c(%ebp),%eax
    26ce:	3b 45 14             	cmp    0x14(%ebp),%eax
    26d1:	7e 07                	jle    26da <draw_line+0x71>
    26d3:	b8 00 04 00 00       	mov    $0x400,%eax
    26d8:	eb 05                	jmp    26df <draw_line+0x76>
    26da:	b8 00 fc ff ff       	mov    $0xfffffc00,%eax
    26df:	89 45 fc             	mov    %eax,-0x4(%ebp)
		dy = (y1 >= y0) ? (((y1 - y0 + 1) << 10) / len) : (((y1 - y0 - 1) << 10) / len);
    26e2:	8b 45 20             	mov    0x20(%ebp),%eax
    26e5:	3b 45 18             	cmp    0x18(%ebp),%eax
    26e8:	7c 16                	jl     2700 <draw_line+0x97>
    26ea:	8b 45 18             	mov    0x18(%ebp),%eax
    26ed:	8b 55 20             	mov    0x20(%ebp),%edx
    26f0:	29 c2                	sub    %eax,%edx
    26f2:	89 d0                	mov    %edx,%eax
    26f4:	83 c0 01             	add    $0x1,%eax
    26f7:	c1 e0 0a             	shl    $0xa,%eax
    26fa:	99                   	cltd   
    26fb:	f7 7d ec             	idivl  -0x14(%ebp)
    26fe:	eb 14                	jmp    2714 <draw_line+0xab>
    2700:	8b 45 18             	mov    0x18(%ebp),%eax
    2703:	8b 55 20             	mov    0x20(%ebp),%edx
    2706:	29 c2                	sub    %eax,%edx
    2708:	89 d0                	mov    %edx,%eax
    270a:	83 e8 01             	sub    $0x1,%eax
    270d:	c1 e0 0a             	shl    $0xa,%eax
    2710:	99                   	cltd   
    2711:	f7 7d ec             	idivl  -0x14(%ebp)
    2714:	89 45 f8             	mov    %eax,-0x8(%ebp)
    2717:	eb 55                	jmp    276e <draw_line+0x105>
	}
	else {
		len = dy + 1;
    2719:	8b 45 f8             	mov    -0x8(%ebp),%eax
    271c:	83 c0 01             	add    $0x1,%eax
    271f:	89 45 ec             	mov    %eax,-0x14(%ebp)
		dy = (y1 > y0) ? 1024 : -1024;
    2722:	8b 45 20             	mov    0x20(%ebp),%eax
    2725:	3b 45 18             	cmp    0x18(%ebp),%eax
    2728:	7e 07                	jle    2731 <draw_line+0xc8>
    272a:	b8 00 04 00 00       	mov    $0x400,%eax
    272f:	eb 05                	jmp    2736 <draw_line+0xcd>
    2731:	b8 00 fc ff ff       	mov    $0xfffffc00,%eax
    2736:	89 45 f8             	mov    %eax,-0x8(%ebp)
		dx = (x1 >= x0) ? (((x1 - x0 + 1) << 10) / len) : (((x1 - x0 - 1) << 10) / len);
    2739:	8b 45 1c             	mov    0x1c(%ebp),%eax
    273c:	3b 45 14             	cmp    0x14(%ebp),%eax
    273f:	7c 16                	jl     2757 <draw_line+0xee>
    2741:	8b 45 14             	mov    0x14(%ebp),%eax
    2744:	8b 55 1c             	mov    0x1c(%ebp),%edx
    2747:	29 c2                	sub    %eax,%edx
    2749:	89 d0                	mov    %edx,%eax
    274b:	83 c0 01             	add    $0x1,%eax
    274e:	c1 e0 0a             	shl    $0xa,%eax
    2751:	99                   	cltd   
    2752:	f7 7d ec             	idivl  -0x14(%ebp)
    2755:	eb 14                	jmp    276b <draw_line+0x102>
    2757:	8b 45 14             	mov    0x14(%ebp),%eax
    275a:	8b 55 1c             	mov    0x1c(%ebp),%edx
    275d:	29 c2                	sub    %eax,%edx
    275f:	89 d0                	mov    %edx,%eax
    2761:	83 e8 01             	sub    $0x1,%eax
    2764:	c1 e0 0a             	shl    $0xa,%eax
    2767:	99                   	cltd   
    2768:	f7 7d ec             	idivl  -0x14(%ebp)
    276b:	89 45 fc             	mov    %eax,-0x4(%ebp)
	}
	for(i = 0; i < len; i++) {
    276e:	c7 45 e8 00 00 00 00 	movl   $0x0,-0x18(%ebp)
    2775:	eb 47                	jmp    27be <draw_line+0x155>
		//printf(0, "draw line point: x=%d, y=%d\n", (x >> 10), (y >> 10));
		draw_point(c, (x >> 10), (y >> 10), color);
    2777:	0f b7 4d dc          	movzwl -0x24(%ebp),%ecx
    277b:	8b 45 f0             	mov    -0x10(%ebp),%eax
    277e:	c1 f8 0a             	sar    $0xa,%eax
    2781:	89 c2                	mov    %eax,%edx
    2783:	8b 45 f4             	mov    -0xc(%ebp),%eax
    2786:	c1 f8 0a             	sar    $0xa,%eax
    2789:	89 4c 24 14          	mov    %ecx,0x14(%esp)
    278d:	89 54 24 10          	mov    %edx,0x10(%esp)
    2791:	89 44 24 0c          	mov    %eax,0xc(%esp)
    2795:	8b 45 08             	mov    0x8(%ebp),%eax
    2798:	89 04 24             	mov    %eax,(%esp)
    279b:	8b 45 0c             	mov    0xc(%ebp),%eax
    279e:	89 44 24 04          	mov    %eax,0x4(%esp)
    27a2:	8b 45 10             	mov    0x10(%ebp),%eax
    27a5:	89 44 24 08          	mov    %eax,0x8(%esp)
    27a9:	e8 07 f7 ff ff       	call   1eb5 <draw_point>
		y += dy;
    27ae:	8b 45 f8             	mov    -0x8(%ebp),%eax
    27b1:	01 45 f0             	add    %eax,-0x10(%ebp)
		x += dx;
    27b4:	8b 45 fc             	mov    -0x4(%ebp),%eax
    27b7:	01 45 f4             	add    %eax,-0xc(%ebp)
	else {
		len = dy + 1;
		dy = (y1 > y0) ? 1024 : -1024;
		dx = (x1 >= x0) ? (((x1 - x0 + 1) << 10) / len) : (((x1 - x0 - 1) << 10) / len);
	}
	for(i = 0; i < len; i++) {
    27ba:	83 45 e8 01          	addl   $0x1,-0x18(%ebp)
    27be:	8b 45 e8             	mov    -0x18(%ebp),%eax
    27c1:	3b 45 ec             	cmp    -0x14(%ebp),%eax
    27c4:	7c b1                	jl     2777 <draw_line+0x10e>
		//printf(0, "draw line point: x=%d, y=%d\n", (x >> 10), (y >> 10));
		draw_point(c, (x >> 10), (y >> 10), color);
		y += dy;
		x += dx;
	}
}
    27c6:	c9                   	leave  
    27c7:	c3                   	ret    

000027c8 <draw_window>:

void
draw_window(Context c, char *title)
{
    27c8:	55                   	push   %ebp
    27c9:	89 e5                	mov    %esp,%ebp
    27cb:	83 ec 38             	sub    $0x38,%esp
  PICNODE pic;
  draw_line(c, 0, 0, c.width - 1, 0, BORDERLINE_COLOR);
    27ce:	8b 45 0c             	mov    0xc(%ebp),%eax
    27d1:	83 e8 01             	sub    $0x1,%eax
    27d4:	c7 44 24 1c 00 00 00 	movl   $0x0,0x1c(%esp)
    27db:	00 
    27dc:	c7 44 24 18 00 00 00 	movl   $0x0,0x18(%esp)
    27e3:	00 
    27e4:	89 44 24 14          	mov    %eax,0x14(%esp)
    27e8:	c7 44 24 10 00 00 00 	movl   $0x0,0x10(%esp)
    27ef:	00 
    27f0:	c7 44 24 0c 00 00 00 	movl   $0x0,0xc(%esp)
    27f7:	00 
    27f8:	8b 45 08             	mov    0x8(%ebp),%eax
    27fb:	89 04 24             	mov    %eax,(%esp)
    27fe:	8b 45 0c             	mov    0xc(%ebp),%eax
    2801:	89 44 24 04          	mov    %eax,0x4(%esp)
    2805:	8b 45 10             	mov    0x10(%ebp),%eax
    2808:	89 44 24 08          	mov    %eax,0x8(%esp)
    280c:	e8 58 fe ff ff       	call   2669 <draw_line>
  draw_line(c, c.width - 1, 0, c.width - 1, c.height - 1, BORDERLINE_COLOR);
    2811:	8b 45 10             	mov    0x10(%ebp),%eax
    2814:	8d 48 ff             	lea    -0x1(%eax),%ecx
    2817:	8b 45 0c             	mov    0xc(%ebp),%eax
    281a:	8d 50 ff             	lea    -0x1(%eax),%edx
    281d:	8b 45 0c             	mov    0xc(%ebp),%eax
    2820:	83 e8 01             	sub    $0x1,%eax
    2823:	c7 44 24 1c 00 00 00 	movl   $0x0,0x1c(%esp)
    282a:	00 
    282b:	89 4c 24 18          	mov    %ecx,0x18(%esp)
    282f:	89 54 24 14          	mov    %edx,0x14(%esp)
    2833:	c7 44 24 10 00 00 00 	movl   $0x0,0x10(%esp)
    283a:	00 
    283b:	89 44 24 0c          	mov    %eax,0xc(%esp)
    283f:	8b 45 08             	mov    0x8(%ebp),%eax
    2842:	89 04 24             	mov    %eax,(%esp)
    2845:	8b 45 0c             	mov    0xc(%ebp),%eax
    2848:	89 44 24 04          	mov    %eax,0x4(%esp)
    284c:	8b 45 10             	mov    0x10(%ebp),%eax
    284f:	89 44 24 08          	mov    %eax,0x8(%esp)
    2853:	e8 11 fe ff ff       	call   2669 <draw_line>
  draw_line(c, c.width - 1, c.height - 1, 0, c.height - 1, BORDERLINE_COLOR);
    2858:	8b 45 10             	mov    0x10(%ebp),%eax
    285b:	8d 48 ff             	lea    -0x1(%eax),%ecx
    285e:	8b 45 10             	mov    0x10(%ebp),%eax
    2861:	8d 50 ff             	lea    -0x1(%eax),%edx
    2864:	8b 45 0c             	mov    0xc(%ebp),%eax
    2867:	83 e8 01             	sub    $0x1,%eax
    286a:	c7 44 24 1c 00 00 00 	movl   $0x0,0x1c(%esp)
    2871:	00 
    2872:	89 4c 24 18          	mov    %ecx,0x18(%esp)
    2876:	c7 44 24 14 00 00 00 	movl   $0x0,0x14(%esp)
    287d:	00 
    287e:	89 54 24 10          	mov    %edx,0x10(%esp)
    2882:	89 44 24 0c          	mov    %eax,0xc(%esp)
    2886:	8b 45 08             	mov    0x8(%ebp),%eax
    2889:	89 04 24             	mov    %eax,(%esp)
    288c:	8b 45 0c             	mov    0xc(%ebp),%eax
    288f:	89 44 24 04          	mov    %eax,0x4(%esp)
    2893:	8b 45 10             	mov    0x10(%ebp),%eax
    2896:	89 44 24 08          	mov    %eax,0x8(%esp)
    289a:	e8 ca fd ff ff       	call   2669 <draw_line>
  draw_line(c, 0, c.height - 1, 0, 0, BORDERLINE_COLOR);
    289f:	8b 45 10             	mov    0x10(%ebp),%eax
    28a2:	83 e8 01             	sub    $0x1,%eax
    28a5:	c7 44 24 1c 00 00 00 	movl   $0x0,0x1c(%esp)
    28ac:	00 
    28ad:	c7 44 24 18 00 00 00 	movl   $0x0,0x18(%esp)
    28b4:	00 
    28b5:	c7 44 24 14 00 00 00 	movl   $0x0,0x14(%esp)
    28bc:	00 
    28bd:	89 44 24 10          	mov    %eax,0x10(%esp)
    28c1:	c7 44 24 0c 00 00 00 	movl   $0x0,0xc(%esp)
    28c8:	00 
    28c9:	8b 45 08             	mov    0x8(%ebp),%eax
    28cc:	89 04 24             	mov    %eax,(%esp)
    28cf:	8b 45 0c             	mov    0xc(%ebp),%eax
    28d2:	89 44 24 04          	mov    %eax,0x4(%esp)
    28d6:	8b 45 10             	mov    0x10(%ebp),%eax
    28d9:	89 44 24 08          	mov    %eax,0x8(%esp)
    28dd:	e8 87 fd ff ff       	call   2669 <draw_line>
  fill_rect(c, 1, 1, c.width - 2, BOTTOMBAR_HEIGHT, TOPBAR_COLOR);
    28e2:	8b 45 0c             	mov    0xc(%ebp),%eax
    28e5:	83 e8 02             	sub    $0x2,%eax
    28e8:	c7 44 24 1c cb 5a 00 	movl   $0x5acb,0x1c(%esp)
    28ef:	00 
    28f0:	c7 44 24 18 14 00 00 	movl   $0x14,0x18(%esp)
    28f7:	00 
    28f8:	89 44 24 14          	mov    %eax,0x14(%esp)
    28fc:	c7 44 24 10 01 00 00 	movl   $0x1,0x10(%esp)
    2903:	00 
    2904:	c7 44 24 0c 01 00 00 	movl   $0x1,0xc(%esp)
    290b:	00 
    290c:	8b 45 08             	mov    0x8(%ebp),%eax
    290f:	89 04 24             	mov    %eax,(%esp)
    2912:	8b 45 0c             	mov    0xc(%ebp),%eax
    2915:	89 44 24 04          	mov    %eax,0x4(%esp)
    2919:	8b 45 10             	mov    0x10(%ebp),%eax
    291c:	89 44 24 08          	mov    %eax,0x8(%esp)
    2920:	e8 cf f5 ff ff       	call   1ef4 <fill_rect>
  fill_rect(c, 1, c.height - 1 - BOTTOMBAR_HEIGHT, c.width - 2, BOTTOMBAR_HEIGHT, BOTTOMBAR_COLOR);
    2925:	8b 45 0c             	mov    0xc(%ebp),%eax
    2928:	83 e8 02             	sub    $0x2,%eax
    292b:	89 c2                	mov    %eax,%edx
    292d:	8b 45 10             	mov    0x10(%ebp),%eax
    2930:	83 e8 15             	sub    $0x15,%eax
    2933:	c7 44 24 1c cb 5a 00 	movl   $0x5acb,0x1c(%esp)
    293a:	00 
    293b:	c7 44 24 18 14 00 00 	movl   $0x14,0x18(%esp)
    2942:	00 
    2943:	89 54 24 14          	mov    %edx,0x14(%esp)
    2947:	89 44 24 10          	mov    %eax,0x10(%esp)
    294b:	c7 44 24 0c 01 00 00 	movl   $0x1,0xc(%esp)
    2952:	00 
    2953:	8b 45 08             	mov    0x8(%ebp),%eax
    2956:	89 04 24             	mov    %eax,(%esp)
    2959:	8b 45 0c             	mov    0xc(%ebp),%eax
    295c:	89 44 24 04          	mov    %eax,0x4(%esp)
    2960:	8b 45 10             	mov    0x10(%ebp),%eax
    2963:	89 44 24 08          	mov    %eax,0x8(%esp)
    2967:	e8 88 f5 ff ff       	call   1ef4 <fill_rect>

  loadBitmap(&pic, "close.bmp");
    296c:	c7 44 24 04 df 8b 00 	movl   $0x8bdf,0x4(%esp)
    2973:	00 
    2974:	8d 45 ec             	lea    -0x14(%ebp),%eax
    2977:	89 04 24             	mov    %eax,(%esp)
    297a:	e8 44 01 00 00       	call   2ac3 <loadBitmap>
  draw_picture(c, pic, 3, 3);
    297f:	c7 44 24 1c 03 00 00 	movl   $0x3,0x1c(%esp)
    2986:	00 
    2987:	c7 44 24 18 03 00 00 	movl   $0x3,0x18(%esp)
    298e:	00 
    298f:	8b 45 ec             	mov    -0x14(%ebp),%eax
    2992:	89 44 24 0c          	mov    %eax,0xc(%esp)
    2996:	8b 45 f0             	mov    -0x10(%ebp),%eax
    2999:	89 44 24 10          	mov    %eax,0x10(%esp)
    299d:	8b 45 f4             	mov    -0xc(%ebp),%eax
    29a0:	89 44 24 14          	mov    %eax,0x14(%esp)
    29a4:	8b 45 08             	mov    0x8(%ebp),%eax
    29a7:	89 04 24             	mov    %eax,(%esp)
    29aa:	8b 45 0c             	mov    0xc(%ebp),%eax
    29ad:	89 44 24 04          	mov    %eax,0x4(%esp)
    29b1:	8b 45 10             	mov    0x10(%ebp),%eax
    29b4:	89 44 24 08          	mov    %eax,0x8(%esp)
    29b8:	e8 d6 fb ff ff       	call   2593 <draw_picture>
  puts_str(c, title, TITLE_COLOR, TITLE_OFFSET_X, TITLE_OFFSET_Y);
    29bd:	c7 44 24 18 02 00 00 	movl   $0x2,0x18(%esp)
    29c4:	00 
    29c5:	c7 44 24 14 19 00 00 	movl   $0x19,0x14(%esp)
    29cc:	00 
    29cd:	c7 44 24 10 ff ff 00 	movl   $0xffff,0x10(%esp)
    29d4:	00 
    29d5:	8b 45 14             	mov    0x14(%ebp),%eax
    29d8:	89 44 24 0c          	mov    %eax,0xc(%esp)
    29dc:	8b 45 08             	mov    0x8(%ebp),%eax
    29df:	89 04 24             	mov    %eax,(%esp)
    29e2:	8b 45 0c             	mov    0xc(%ebp),%eax
    29e5:	89 44 24 04          	mov    %eax,0x4(%esp)
    29e9:	8b 45 10             	mov    0x10(%ebp),%eax
    29ec:	89 44 24 08          	mov    %eax,0x8(%esp)
    29f0:	e8 de fa ff ff       	call   24d3 <puts_str>
  freepic(&pic);
    29f5:	8d 45 ec             	lea    -0x14(%ebp),%eax
    29f8:	89 04 24             	mov    %eax,(%esp)
    29fb:	e8 6f 06 00 00       	call   306f <freepic>
}
    2a00:	c9                   	leave  
    2a01:	c3                   	ret    

00002a02 <load_iconlist>:

void load_iconlist(ICON* iconlist, int len)
{
    2a02:	55                   	push   %ebp
    2a03:	89 e5                	mov    %esp,%ebp
    2a05:	83 ec 28             	sub    $0x28,%esp
	int i;
	for (i = 0; i < len; i++)
    2a08:	c7 45 f4 00 00 00 00 	movl   $0x0,-0xc(%ebp)
    2a0f:	eb 29                	jmp    2a3a <load_iconlist+0x38>
	{
	    loadBitmap(&(iconlist[i].pic), iconlist[i].name);
    2a11:	8b 45 f4             	mov    -0xc(%ebp),%eax
    2a14:	6b d0 34             	imul   $0x34,%eax,%edx
    2a17:	8b 45 08             	mov    0x8(%ebp),%eax
    2a1a:	01 d0                	add    %edx,%eax
    2a1c:	8b 55 f4             	mov    -0xc(%ebp),%edx
    2a1f:	6b ca 34             	imul   $0x34,%edx,%ecx
    2a22:	8b 55 08             	mov    0x8(%ebp),%edx
    2a25:	01 ca                	add    %ecx,%edx
    2a27:	83 c2 28             	add    $0x28,%edx
    2a2a:	89 44 24 04          	mov    %eax,0x4(%esp)
    2a2e:	89 14 24             	mov    %edx,(%esp)
    2a31:	e8 8d 00 00 00       	call   2ac3 <loadBitmap>
}

void load_iconlist(ICON* iconlist, int len)
{
	int i;
	for (i = 0; i < len; i++)
    2a36:	83 45 f4 01          	addl   $0x1,-0xc(%ebp)
    2a3a:	8b 45 f4             	mov    -0xc(%ebp),%eax
    2a3d:	3b 45 0c             	cmp    0xc(%ebp),%eax
    2a40:	7c cf                	jl     2a11 <load_iconlist+0xf>
	{
	    loadBitmap(&(iconlist[i].pic), iconlist[i].name);
	}
}
    2a42:	c9                   	leave  
    2a43:	c3                   	ret    

00002a44 <draw_iconlist>:
void draw_iconlist(Context c, ICON* iconlist, int len)
{
    2a44:	55                   	push   %ebp
    2a45:	89 e5                	mov    %esp,%ebp
    2a47:	53                   	push   %ebx
    2a48:	83 ec 30             	sub    $0x30,%esp
    int i;
    for (i = 0; i < len; i++)
    2a4b:	c7 45 f8 00 00 00 00 	movl   $0x0,-0x8(%ebp)
    2a52:	eb 61                	jmp    2ab5 <draw_iconlist+0x71>
    {
        draw_picture(c, iconlist[i].pic, iconlist[i].position_x, iconlist[i].position_y);
    2a54:	8b 45 f8             	mov    -0x8(%ebp),%eax
    2a57:	6b d0 34             	imul   $0x34,%eax,%edx
    2a5a:	8b 45 14             	mov    0x14(%ebp),%eax
    2a5d:	01 d0                	add    %edx,%eax
    2a5f:	8b 48 24             	mov    0x24(%eax),%ecx
    2a62:	8b 45 f8             	mov    -0x8(%ebp),%eax
    2a65:	6b d0 34             	imul   $0x34,%eax,%edx
    2a68:	8b 45 14             	mov    0x14(%ebp),%eax
    2a6b:	01 d0                	add    %edx,%eax
    2a6d:	8b 50 20             	mov    0x20(%eax),%edx
    2a70:	8b 45 f8             	mov    -0x8(%ebp),%eax
    2a73:	6b d8 34             	imul   $0x34,%eax,%ebx
    2a76:	8b 45 14             	mov    0x14(%ebp),%eax
    2a79:	01 d8                	add    %ebx,%eax
    2a7b:	89 4c 24 1c          	mov    %ecx,0x1c(%esp)
    2a7f:	89 54 24 18          	mov    %edx,0x18(%esp)
    2a83:	8b 50 28             	mov    0x28(%eax),%edx
    2a86:	89 54 24 0c          	mov    %edx,0xc(%esp)
    2a8a:	8b 50 2c             	mov    0x2c(%eax),%edx
    2a8d:	89 54 24 10          	mov    %edx,0x10(%esp)
    2a91:	8b 40 30             	mov    0x30(%eax),%eax
    2a94:	89 44 24 14          	mov    %eax,0x14(%esp)
    2a98:	8b 45 08             	mov    0x8(%ebp),%eax
    2a9b:	89 04 24             	mov    %eax,(%esp)
    2a9e:	8b 45 0c             	mov    0xc(%ebp),%eax
    2aa1:	89 44 24 04          	mov    %eax,0x4(%esp)
    2aa5:	8b 45 10             	mov    0x10(%ebp),%eax
    2aa8:	89 44 24 08          	mov    %eax,0x8(%esp)
    2aac:	e8 e2 fa ff ff       	call   2593 <draw_picture>
	}
}
void draw_iconlist(Context c, ICON* iconlist, int len)
{
    int i;
    for (i = 0; i < len; i++)
    2ab1:	83 45 f8 01          	addl   $0x1,-0x8(%ebp)
    2ab5:	8b 45 f8             	mov    -0x8(%ebp),%eax
    2ab8:	3b 45 18             	cmp    0x18(%ebp),%eax
    2abb:	7c 97                	jl     2a54 <draw_iconlist+0x10>
    {
        draw_picture(c, iconlist[i].pic, iconlist[i].position_x, iconlist[i].position_y);
    }
}
    2abd:	83 c4 30             	add    $0x30,%esp
    2ac0:	5b                   	pop    %ebx
    2ac1:	5d                   	pop    %ebp
    2ac2:	c3                   	ret    

00002ac3 <loadBitmap>:
#include "clickable.h"

void showRgbQuan(RGBQUAD* pRGB);
void showBmpHead(BITMAPFILEHEADER* pBmpHead);
void showBmpInforHead(BITMAPINFOHEADER* pBmpInforHead);
void loadBitmap(PICNODE *pic, char pic_name[]) {
    2ac3:	55                   	push   %ebp
    2ac4:	89 e5                	mov    %esp,%ebp
    2ac6:	81 ec a8 00 00 00    	sub    $0xa8,%esp
	BITMAPFILEHEADER bitHead;
	BITMAPINFOHEADER bitInfoHead;
	char *BmpFileHeader;
	WORD *temp_WORD;
	DWORD *temp_DWORD;
	int fd, n, i, j, k, index = 0;
    2acc:	c7 45 ec 00 00 00 00 	movl   $0x0,-0x14(%ebp)
	int width;
	int height;

	if ((fd = open(pic_name, 0)) < 0) {
    2ad3:	c7 44 24 04 00 00 00 	movl   $0x0,0x4(%esp)
    2ada:	00 
    2adb:	8b 45 0c             	mov    0xc(%ebp),%eax
    2ade:	89 04 24             	mov    %eax,(%esp)
    2ae1:	e8 e4 11 00 00       	call   3cca <open>
    2ae6:	89 45 e8             	mov    %eax,-0x18(%ebp)
    2ae9:	83 7d e8 00          	cmpl   $0x0,-0x18(%ebp)
    2aed:	79 20                	jns    2b0f <loadBitmap+0x4c>
		printf(0, "cannot open %s\n", pic_name);
    2aef:	8b 45 0c             	mov    0xc(%ebp),%eax
    2af2:	89 44 24 08          	mov    %eax,0x8(%esp)
    2af6:	c7 44 24 04 ec 8b 00 	movl   $0x8bec,0x4(%esp)
    2afd:	00 
    2afe:	c7 04 24 00 00 00 00 	movl   $0x0,(%esp)
    2b05:	e8 68 13 00 00       	call   3e72 <printf>
		return;
    2b0a:	e9 ef 02 00 00       	jmp    2dfe <loadBitmap+0x33b>
	}
	printf(0, "reading bitmap: %s\n", pic_name);
    2b0f:	8b 45 0c             	mov    0xc(%ebp),%eax
    2b12:	89 44 24 08          	mov    %eax,0x8(%esp)
    2b16:	c7 44 24 04 fc 8b 00 	movl   $0x8bfc,0x4(%esp)
    2b1d:	00 
    2b1e:	c7 04 24 00 00 00 00 	movl   $0x0,(%esp)
    2b25:	e8 48 13 00 00       	call   3e72 <printf>
	//pfile = fopen(strFile,"rb");//打开文件
	BmpFileHeader = (char *) malloc(14 * sizeof(char));
    2b2a:	c7 04 24 0e 00 00 00 	movl   $0xe,(%esp)
    2b31:	e8 28 16 00 00       	call   415e <malloc>
    2b36:	89 45 e4             	mov    %eax,-0x1c(%ebp)

	//printf(0, "file bmp open success.\n");
	//读取位图文件头信息
	//printf(0, "reading BmpFileHeader.\n");
	n = read(fd, BmpFileHeader, 14);
    2b39:	c7 44 24 08 0e 00 00 	movl   $0xe,0x8(%esp)
    2b40:	00 
    2b41:	8b 45 e4             	mov    -0x1c(%ebp),%eax
    2b44:	89 44 24 04          	mov    %eax,0x4(%esp)
    2b48:	8b 45 e8             	mov    -0x18(%ebp),%eax
    2b4b:	89 04 24             	mov    %eax,(%esp)
    2b4e:	e8 4f 11 00 00       	call   3ca2 <read>
    2b53:	89 45 e0             	mov    %eax,-0x20(%ebp)
	//fread(BmpFileHeader,1,14,pfile);
	temp_WORD = (WORD*) (BmpFileHeader);
    2b56:	8b 45 e4             	mov    -0x1c(%ebp),%eax
    2b59:	89 45 dc             	mov    %eax,-0x24(%ebp)
	bitHead.bfType = *temp_WORD;
    2b5c:	8b 45 dc             	mov    -0x24(%ebp),%eax
    2b5f:	0f b7 00             	movzwl (%eax),%eax
    2b62:	66 89 45 ac          	mov    %ax,-0x54(%ebp)
	if (bitHead.bfType != 0x4d42) {
    2b66:	0f b7 45 ac          	movzwl -0x54(%ebp),%eax
    2b6a:	66 3d 42 4d          	cmp    $0x4d42,%ax
    2b6e:	74 19                	je     2b89 <loadBitmap+0xc6>
		printf(0, "file is not .bmp file!");
    2b70:	c7 44 24 04 10 8c 00 	movl   $0x8c10,0x4(%esp)
    2b77:	00 
    2b78:	c7 04 24 00 00 00 00 	movl   $0x0,(%esp)
    2b7f:	e8 ee 12 00 00       	call   3e72 <printf>
		return;
    2b84:	e9 75 02 00 00       	jmp    2dfe <loadBitmap+0x33b>
	}
	temp_DWORD = (DWORD *) (BmpFileHeader + sizeof(bitHead.bfType));
    2b89:	8b 45 e4             	mov    -0x1c(%ebp),%eax
    2b8c:	83 c0 02             	add    $0x2,%eax
    2b8f:	89 45 d8             	mov    %eax,-0x28(%ebp)
	bitHead.bfSize = *temp_DWORD;
    2b92:	8b 45 d8             	mov    -0x28(%ebp),%eax
    2b95:	8b 00                	mov    (%eax),%eax
    2b97:	89 45 b0             	mov    %eax,-0x50(%ebp)
	temp_WORD = (WORD*) (BmpFileHeader + sizeof(bitHead.bfType)
    2b9a:	8b 45 e4             	mov    -0x1c(%ebp),%eax
    2b9d:	83 c0 06             	add    $0x6,%eax
    2ba0:	89 45 dc             	mov    %eax,-0x24(%ebp)
			+ sizeof(bitHead.bfSize));
	bitHead.bfReserved1 = *temp_WORD;
    2ba3:	8b 45 dc             	mov    -0x24(%ebp),%eax
    2ba6:	0f b7 00             	movzwl (%eax),%eax
    2ba9:	66 89 45 b4          	mov    %ax,-0x4c(%ebp)
	temp_WORD = (WORD*) (BmpFileHeader + sizeof(bitHead.bfType)
    2bad:	8b 45 e4             	mov    -0x1c(%ebp),%eax
    2bb0:	83 c0 08             	add    $0x8,%eax
    2bb3:	89 45 dc             	mov    %eax,-0x24(%ebp)
			+ sizeof(bitHead.bfSize) + sizeof(bitHead.bfReserved1));
	bitHead.bfReserved2 = *temp_WORD;
    2bb6:	8b 45 dc             	mov    -0x24(%ebp),%eax
    2bb9:	0f b7 00             	movzwl (%eax),%eax
    2bbc:	66 89 45 b6          	mov    %ax,-0x4a(%ebp)
	temp_DWORD = (DWORD*) (BmpFileHeader + sizeof(bitHead.bfType)
    2bc0:	8b 45 e4             	mov    -0x1c(%ebp),%eax
    2bc3:	83 c0 0a             	add    $0xa,%eax
    2bc6:	89 45 d8             	mov    %eax,-0x28(%ebp)
			+ sizeof(bitHead.bfSize) + sizeof(bitHead.bfReserved1)
			+ sizeof(bitHead.bfReserved2));
	bitHead.bfOffBits = *temp_DWORD;
    2bc9:	8b 45 d8             	mov    -0x28(%ebp),%eax
    2bcc:	8b 00                	mov    (%eax),%eax
    2bce:	89 45 b8             	mov    %eax,-0x48(%ebp)
	//printf(0, "reading BmpFileHeader success!\n");
	//showBmpHead(&bitHead);
	//printf(0, "\n\n");
//
//	//读取位图信息头信息
	read(fd, &bitInfoHead, sizeof(BITMAPINFOHEADER));
    2bd1:	c7 44 24 08 28 00 00 	movl   $0x28,0x8(%esp)
    2bd8:	00 
    2bd9:	8d 45 84             	lea    -0x7c(%ebp),%eax
    2bdc:	89 44 24 04          	mov    %eax,0x4(%esp)
    2be0:	8b 45 e8             	mov    -0x18(%ebp),%eax
    2be3:	89 04 24             	mov    %eax,(%esp)
    2be6:	e8 b7 10 00 00       	call   3ca2 <read>
	width = bitInfoHead.biWidth;
    2beb:	8b 45 88             	mov    -0x78(%ebp),%eax
    2bee:	89 45 d4             	mov    %eax,-0x2c(%ebp)
	height = bitInfoHead.biHeight;
    2bf1:	8b 45 8c             	mov    -0x74(%ebp),%eax
    2bf4:	89 45 d0             	mov    %eax,-0x30(%ebp)
	printf(0, "bmp width: %d, height: %d, size: %d\n", width, height,
			width * height * sizeof(RGBQUAD));
    2bf7:	8b 45 d4             	mov    -0x2c(%ebp),%eax
    2bfa:	0f af 45 d0          	imul   -0x30(%ebp),%eax
//
//	//读取位图信息头信息
	read(fd, &bitInfoHead, sizeof(BITMAPINFOHEADER));
	width = bitInfoHead.biWidth;
	height = bitInfoHead.biHeight;
	printf(0, "bmp width: %d, height: %d, size: %d\n", width, height,
    2bfe:	c1 e0 02             	shl    $0x2,%eax
    2c01:	89 44 24 10          	mov    %eax,0x10(%esp)
    2c05:	8b 45 d0             	mov    -0x30(%ebp),%eax
    2c08:	89 44 24 0c          	mov    %eax,0xc(%esp)
    2c0c:	8b 45 d4             	mov    -0x2c(%ebp),%eax
    2c0f:	89 44 24 08          	mov    %eax,0x8(%esp)
    2c13:	c7 44 24 04 28 8c 00 	movl   $0x8c28,0x4(%esp)
    2c1a:	00 
    2c1b:	c7 04 24 00 00 00 00 	movl   $0x0,(%esp)
    2c22:	e8 4b 12 00 00       	call   3e72 <printf>
			width * height * sizeof(RGBQUAD));
	//fread(&bitInfoHead,1,sizeof(BITMAPINFOHEADER),pfile);
	//showBmpInforHead(&bitInfoHead);
	//printf(0, "\n");
	if (n == 0) {
    2c27:	83 7d e0 00          	cmpl   $0x0,-0x20(%ebp)
    2c2b:	75 14                	jne    2c41 <loadBitmap+0x17e>
		printf(0, "0");
    2c2d:	c7 44 24 04 4d 8c 00 	movl   $0x8c4d,0x4(%esp)
    2c34:	00 
    2c35:	c7 04 24 00 00 00 00 	movl   $0x0,(%esp)
    2c3c:	e8 31 12 00 00       	call   3e72 <printf>
	}

	//分配内存空间把源图存入内存
	int l_width = WIDTHBYTES(width * bitInfoHead.biBitCount);//计算位图的实际宽度并确保它为32的倍数
    2c41:	0f b7 45 92          	movzwl -0x6e(%ebp),%eax
    2c45:	0f b7 c0             	movzwl %ax,%eax
    2c48:	0f af 45 d4          	imul   -0x2c(%ebp),%eax
    2c4c:	83 c0 1f             	add    $0x1f,%eax
    2c4f:	8d 50 1f             	lea    0x1f(%eax),%edx
    2c52:	85 c0                	test   %eax,%eax
    2c54:	0f 48 c2             	cmovs  %edx,%eax
    2c57:	c1 f8 05             	sar    $0x5,%eax
    2c5a:	c1 e0 02             	shl    $0x2,%eax
    2c5d:	89 45 cc             	mov    %eax,-0x34(%ebp)
	BYTE *pColorData = (BYTE *) malloc(height * l_width);
    2c60:	8b 45 d0             	mov    -0x30(%ebp),%eax
    2c63:	0f af 45 cc          	imul   -0x34(%ebp),%eax
    2c67:	89 04 24             	mov    %eax,(%esp)
    2c6a:	e8 ef 14 00 00       	call   415e <malloc>
    2c6f:	89 45 c8             	mov    %eax,-0x38(%ebp)
	memset(pColorData, 0, (uint) height * l_width);
    2c72:	8b 55 d0             	mov    -0x30(%ebp),%edx
    2c75:	8b 45 cc             	mov    -0x34(%ebp),%eax
    2c78:	0f af c2             	imul   %edx,%eax
    2c7b:	89 44 24 08          	mov    %eax,0x8(%esp)
    2c7f:	c7 44 24 04 00 00 00 	movl   $0x0,0x4(%esp)
    2c86:	00 
    2c87:	8b 45 c8             	mov    -0x38(%ebp),%eax
    2c8a:	89 04 24             	mov    %eax,(%esp)
    2c8d:	e8 4b 0e 00 00       	call   3add <memset>
	long nData = height * l_width;
    2c92:	8b 45 d0             	mov    -0x30(%ebp),%eax
    2c95:	0f af 45 cc          	imul   -0x34(%ebp),%eax
    2c99:	89 45 c4             	mov    %eax,-0x3c(%ebp)
	//把位图数据信息读到数组里
	read(fd, pColorData, nData);
    2c9c:	8b 45 c4             	mov    -0x3c(%ebp),%eax
    2c9f:	89 44 24 08          	mov    %eax,0x8(%esp)
    2ca3:	8b 45 c8             	mov    -0x38(%ebp),%eax
    2ca6:	89 44 24 04          	mov    %eax,0x4(%esp)
    2caa:	8b 45 e8             	mov    -0x18(%ebp),%eax
    2cad:	89 04 24             	mov    %eax,(%esp)
    2cb0:	e8 ed 0f 00 00       	call   3ca2 <read>

	//printf(0, "reading bmp data.\n");
	//将位图数据转化为RGB数据
	RGBQUAD* dataOfBmp;

	dataOfBmp = (RGBQUAD *) malloc(width * height * sizeof(RGBQUAD));//用于保存各像素对应的RGB数据
    2cb5:	8b 45 d4             	mov    -0x2c(%ebp),%eax
    2cb8:	0f af 45 d0          	imul   -0x30(%ebp),%eax
    2cbc:	c1 e0 02             	shl    $0x2,%eax
    2cbf:	89 04 24             	mov    %eax,(%esp)
    2cc2:	e8 97 14 00 00       	call   415e <malloc>
    2cc7:	89 45 c0             	mov    %eax,-0x40(%ebp)
	memset(dataOfBmp, 0, (uint) width * height * sizeof(RGBQUAD));
    2cca:	8b 55 d4             	mov    -0x2c(%ebp),%edx
    2ccd:	8b 45 d0             	mov    -0x30(%ebp),%eax
    2cd0:	0f af c2             	imul   %edx,%eax
    2cd3:	c1 e0 02             	shl    $0x2,%eax
    2cd6:	89 44 24 08          	mov    %eax,0x8(%esp)
    2cda:	c7 44 24 04 00 00 00 	movl   $0x0,0x4(%esp)
    2ce1:	00 
    2ce2:	8b 45 c0             	mov    -0x40(%ebp),%eax
    2ce5:	89 04 24             	mov    %eax,(%esp)
    2ce8:	e8 f0 0d 00 00       	call   3add <memset>
	if (bitInfoHead.biBitCount < 24)	//有调色板，即位图为非真彩色
    2ced:	0f b7 45 92          	movzwl -0x6e(%ebp),%eax
    2cf1:	66 83 f8 17          	cmp    $0x17,%ax
    2cf5:	77 19                	ja     2d10 <loadBitmap+0x24d>
			{
		printf(0, "%s is not a 24 bit bmp! return.");
    2cf7:	c7 44 24 04 50 8c 00 	movl   $0x8c50,0x4(%esp)
    2cfe:	00 
    2cff:	c7 04 24 00 00 00 00 	movl   $0x0,(%esp)
    2d06:	e8 67 11 00 00       	call   3e72 <printf>
		return;
    2d0b:	e9 ee 00 00 00       	jmp    2dfe <loadBitmap+0x33b>
	} else	//位图为24位真彩色
	{
		index = 0;
    2d10:	c7 45 ec 00 00 00 00 	movl   $0x0,-0x14(%ebp)
		for (i = 0; i < height; i++)
    2d17:	c7 45 f4 00 00 00 00 	movl   $0x0,-0xc(%ebp)
    2d1e:	e9 94 00 00 00       	jmp    2db7 <loadBitmap+0x2f4>
			for (j = 0; j < width; j++) {
    2d23:	c7 45 f0 00 00 00 00 	movl   $0x0,-0x10(%ebp)
    2d2a:	eb 7b                	jmp    2da7 <loadBitmap+0x2e4>
				k = i * l_width + j * 3;
    2d2c:	8b 45 f4             	mov    -0xc(%ebp),%eax
    2d2f:	0f af 45 cc          	imul   -0x34(%ebp),%eax
    2d33:	89 c1                	mov    %eax,%ecx
    2d35:	8b 55 f0             	mov    -0x10(%ebp),%edx
    2d38:	89 d0                	mov    %edx,%eax
    2d3a:	01 c0                	add    %eax,%eax
    2d3c:	01 d0                	add    %edx,%eax
    2d3e:	01 c8                	add    %ecx,%eax
    2d40:	89 45 bc             	mov    %eax,-0x44(%ebp)
				dataOfBmp[index].rgbRed = pColorData[k + 2];
    2d43:	8b 45 ec             	mov    -0x14(%ebp),%eax
    2d46:	8d 14 85 00 00 00 00 	lea    0x0(,%eax,4),%edx
    2d4d:	8b 45 c0             	mov    -0x40(%ebp),%eax
    2d50:	01 c2                	add    %eax,%edx
    2d52:	8b 45 bc             	mov    -0x44(%ebp),%eax
    2d55:	8d 48 02             	lea    0x2(%eax),%ecx
    2d58:	8b 45 c8             	mov    -0x38(%ebp),%eax
    2d5b:	01 c8                	add    %ecx,%eax
    2d5d:	0f b6 00             	movzbl (%eax),%eax
    2d60:	88 42 02             	mov    %al,0x2(%edx)
				dataOfBmp[index].rgbGreen = pColorData[k + 1];
    2d63:	8b 45 ec             	mov    -0x14(%ebp),%eax
    2d66:	8d 14 85 00 00 00 00 	lea    0x0(,%eax,4),%edx
    2d6d:	8b 45 c0             	mov    -0x40(%ebp),%eax
    2d70:	01 c2                	add    %eax,%edx
    2d72:	8b 45 bc             	mov    -0x44(%ebp),%eax
    2d75:	8d 48 01             	lea    0x1(%eax),%ecx
    2d78:	8b 45 c8             	mov    -0x38(%ebp),%eax
    2d7b:	01 c8                	add    %ecx,%eax
    2d7d:	0f b6 00             	movzbl (%eax),%eax
    2d80:	88 42 01             	mov    %al,0x1(%edx)
				dataOfBmp[index].rgbBlue = pColorData[k];
    2d83:	8b 45 ec             	mov    -0x14(%ebp),%eax
    2d86:	8d 14 85 00 00 00 00 	lea    0x0(,%eax,4),%edx
    2d8d:	8b 45 c0             	mov    -0x40(%ebp),%eax
    2d90:	01 c2                	add    %eax,%edx
    2d92:	8b 4d bc             	mov    -0x44(%ebp),%ecx
    2d95:	8b 45 c8             	mov    -0x38(%ebp),%eax
    2d98:	01 c8                	add    %ecx,%eax
    2d9a:	0f b6 00             	movzbl (%eax),%eax
    2d9d:	88 02                	mov    %al,(%edx)
				index++;
    2d9f:	83 45 ec 01          	addl   $0x1,-0x14(%ebp)
		return;
	} else	//位图为24位真彩色
	{
		index = 0;
		for (i = 0; i < height; i++)
			for (j = 0; j < width; j++) {
    2da3:	83 45 f0 01          	addl   $0x1,-0x10(%ebp)
    2da7:	8b 45 f0             	mov    -0x10(%ebp),%eax
    2daa:	3b 45 d4             	cmp    -0x2c(%ebp),%eax
    2dad:	0f 8c 79 ff ff ff    	jl     2d2c <loadBitmap+0x269>
		printf(0, "%s is not a 24 bit bmp! return.");
		return;
	} else	//位图为24位真彩色
	{
		index = 0;
		for (i = 0; i < height; i++)
    2db3:	83 45 f4 01          	addl   $0x1,-0xc(%ebp)
    2db7:	8b 45 f4             	mov    -0xc(%ebp),%eax
    2dba:	3b 45 d0             	cmp    -0x30(%ebp),%eax
    2dbd:	0f 8c 60 ff ff ff    	jl     2d23 <loadBitmap+0x260>
//			printf(0, "\n");
//		}
//		showRgbQuan(&dataOfBmp[i]);
//	}

	close(fd);
    2dc3:	8b 45 e8             	mov    -0x18(%ebp),%eax
    2dc6:	89 04 24             	mov    %eax,(%esp)
    2dc9:	e8 e4 0e 00 00       	call   3cb2 <close>

	//free(dataOfBmp);
	pic->data = dataOfBmp;
    2dce:	8b 45 08             	mov    0x8(%ebp),%eax
    2dd1:	8b 55 c0             	mov    -0x40(%ebp),%edx
    2dd4:	89 10                	mov    %edx,(%eax)
	pic->width = width;
    2dd6:	8b 45 08             	mov    0x8(%ebp),%eax
    2dd9:	8b 55 d4             	mov    -0x2c(%ebp),%edx
    2ddc:	89 50 04             	mov    %edx,0x4(%eax)
	pic->height = height;
    2ddf:	8b 45 08             	mov    0x8(%ebp),%eax
    2de2:	8b 55 d0             	mov    -0x30(%ebp),%edx
    2de5:	89 50 08             	mov    %edx,0x8(%eax)
	free(pColorData);
    2de8:	8b 45 c8             	mov    -0x38(%ebp),%eax
    2deb:	89 04 24             	mov    %eax,(%esp)
    2dee:	e8 32 12 00 00       	call   4025 <free>
	free(BmpFileHeader);
    2df3:	8b 45 e4             	mov    -0x1c(%ebp),%eax
    2df6:	89 04 24             	mov    %eax,(%esp)
    2df9:	e8 27 12 00 00       	call   4025 <free>
	//printf("\n");
}
    2dfe:	c9                   	leave  
    2dff:	c3                   	ret    

00002e00 <showBmpHead>:

void showBmpHead(BITMAPFILEHEADER* pBmpHead) {
    2e00:	55                   	push   %ebp
    2e01:	89 e5                	mov    %esp,%ebp
    2e03:	83 ec 18             	sub    $0x18,%esp
	printf(0, "位图文件头:\n");
    2e06:	c7 44 24 04 70 8c 00 	movl   $0x8c70,0x4(%esp)
    2e0d:	00 
    2e0e:	c7 04 24 00 00 00 00 	movl   $0x0,(%esp)
    2e15:	e8 58 10 00 00       	call   3e72 <printf>
	printf(0, "bmp格式标志bftype：0x%x\n", pBmpHead->bfType);
    2e1a:	8b 45 08             	mov    0x8(%ebp),%eax
    2e1d:	0f b7 00             	movzwl (%eax),%eax
    2e20:	0f b7 c0             	movzwl %ax,%eax
    2e23:	89 44 24 08          	mov    %eax,0x8(%esp)
    2e27:	c7 44 24 04 82 8c 00 	movl   $0x8c82,0x4(%esp)
    2e2e:	00 
    2e2f:	c7 04 24 00 00 00 00 	movl   $0x0,(%esp)
    2e36:	e8 37 10 00 00       	call   3e72 <printf>
	printf(0, "文件大小:%d\n", pBmpHead->bfSize);
    2e3b:	8b 45 08             	mov    0x8(%ebp),%eax
    2e3e:	8b 40 04             	mov    0x4(%eax),%eax
    2e41:	89 44 24 08          	mov    %eax,0x8(%esp)
    2e45:	c7 44 24 04 a0 8c 00 	movl   $0x8ca0,0x4(%esp)
    2e4c:	00 
    2e4d:	c7 04 24 00 00 00 00 	movl   $0x0,(%esp)
    2e54:	e8 19 10 00 00       	call   3e72 <printf>
	printf(0, "保留字:%d\n", pBmpHead->bfReserved1);
    2e59:	8b 45 08             	mov    0x8(%ebp),%eax
    2e5c:	0f b7 40 08          	movzwl 0x8(%eax),%eax
    2e60:	0f b7 c0             	movzwl %ax,%eax
    2e63:	89 44 24 08          	mov    %eax,0x8(%esp)
    2e67:	c7 44 24 04 b1 8c 00 	movl   $0x8cb1,0x4(%esp)
    2e6e:	00 
    2e6f:	c7 04 24 00 00 00 00 	movl   $0x0,(%esp)
    2e76:	e8 f7 0f 00 00       	call   3e72 <printf>
	printf(0, "保留字:%d\n", pBmpHead->bfReserved2);
    2e7b:	8b 45 08             	mov    0x8(%ebp),%eax
    2e7e:	0f b7 40 0a          	movzwl 0xa(%eax),%eax
    2e82:	0f b7 c0             	movzwl %ax,%eax
    2e85:	89 44 24 08          	mov    %eax,0x8(%esp)
    2e89:	c7 44 24 04 b1 8c 00 	movl   $0x8cb1,0x4(%esp)
    2e90:	00 
    2e91:	c7 04 24 00 00 00 00 	movl   $0x0,(%esp)
    2e98:	e8 d5 0f 00 00       	call   3e72 <printf>
	printf(0, "实际位图数据的偏移字节数:%d\n", pBmpHead->bfOffBits);
    2e9d:	8b 45 08             	mov    0x8(%ebp),%eax
    2ea0:	8b 40 0c             	mov    0xc(%eax),%eax
    2ea3:	89 44 24 08          	mov    %eax,0x8(%esp)
    2ea7:	c7 44 24 04 c0 8c 00 	movl   $0x8cc0,0x4(%esp)
    2eae:	00 
    2eaf:	c7 04 24 00 00 00 00 	movl   $0x0,(%esp)
    2eb6:	e8 b7 0f 00 00       	call   3e72 <printf>
}
    2ebb:	c9                   	leave  
    2ebc:	c3                   	ret    

00002ebd <showBmpInforHead>:

void showBmpInforHead(BITMAPINFOHEADER* pBmpInforHead) {
    2ebd:	55                   	push   %ebp
    2ebe:	89 e5                	mov    %esp,%ebp
    2ec0:	83 ec 18             	sub    $0x18,%esp
	printf(0, "位图信息头:\n");
    2ec3:	c7 44 24 04 e9 8c 00 	movl   $0x8ce9,0x4(%esp)
    2eca:	00 
    2ecb:	c7 04 24 00 00 00 00 	movl   $0x0,(%esp)
    2ed2:	e8 9b 0f 00 00       	call   3e72 <printf>
	printf(0, "结构体的长度:%d\n", pBmpInforHead->biSize);
    2ed7:	8b 45 08             	mov    0x8(%ebp),%eax
    2eda:	8b 00                	mov    (%eax),%eax
    2edc:	89 44 24 08          	mov    %eax,0x8(%esp)
    2ee0:	c7 44 24 04 fb 8c 00 	movl   $0x8cfb,0x4(%esp)
    2ee7:	00 
    2ee8:	c7 04 24 00 00 00 00 	movl   $0x0,(%esp)
    2eef:	e8 7e 0f 00 00       	call   3e72 <printf>
	printf(0, "位图宽:%d\n", pBmpInforHead->biWidth);
    2ef4:	8b 45 08             	mov    0x8(%ebp),%eax
    2ef7:	8b 40 04             	mov    0x4(%eax),%eax
    2efa:	89 44 24 08          	mov    %eax,0x8(%esp)
    2efe:	c7 44 24 04 12 8d 00 	movl   $0x8d12,0x4(%esp)
    2f05:	00 
    2f06:	c7 04 24 00 00 00 00 	movl   $0x0,(%esp)
    2f0d:	e8 60 0f 00 00       	call   3e72 <printf>
	printf(0, "位图高:%d\n", pBmpInforHead->biHeight);
    2f12:	8b 45 08             	mov    0x8(%ebp),%eax
    2f15:	8b 40 08             	mov    0x8(%eax),%eax
    2f18:	89 44 24 08          	mov    %eax,0x8(%esp)
    2f1c:	c7 44 24 04 20 8d 00 	movl   $0x8d20,0x4(%esp)
    2f23:	00 
    2f24:	c7 04 24 00 00 00 00 	movl   $0x0,(%esp)
    2f2b:	e8 42 0f 00 00       	call   3e72 <printf>
	printf(0, "biPlanes平面数:%d\n", pBmpInforHead->biPlanes);
    2f30:	8b 45 08             	mov    0x8(%ebp),%eax
    2f33:	0f b7 40 0c          	movzwl 0xc(%eax),%eax
    2f37:	0f b7 c0             	movzwl %ax,%eax
    2f3a:	89 44 24 08          	mov    %eax,0x8(%esp)
    2f3e:	c7 44 24 04 2e 8d 00 	movl   $0x8d2e,0x4(%esp)
    2f45:	00 
    2f46:	c7 04 24 00 00 00 00 	movl   $0x0,(%esp)
    2f4d:	e8 20 0f 00 00       	call   3e72 <printf>
	printf(0, "biBitCount采用颜色位数:%d\n", pBmpInforHead->biBitCount);
    2f52:	8b 45 08             	mov    0x8(%ebp),%eax
    2f55:	0f b7 40 0e          	movzwl 0xe(%eax),%eax
    2f59:	0f b7 c0             	movzwl %ax,%eax
    2f5c:	89 44 24 08          	mov    %eax,0x8(%esp)
    2f60:	c7 44 24 04 44 8d 00 	movl   $0x8d44,0x4(%esp)
    2f67:	00 
    2f68:	c7 04 24 00 00 00 00 	movl   $0x0,(%esp)
    2f6f:	e8 fe 0e 00 00       	call   3e72 <printf>
	printf(0, "压缩方式:%d\n", pBmpInforHead->biCompression);
    2f74:	8b 45 08             	mov    0x8(%ebp),%eax
    2f77:	8b 40 10             	mov    0x10(%eax),%eax
    2f7a:	89 44 24 08          	mov    %eax,0x8(%esp)
    2f7e:	c7 44 24 04 65 8d 00 	movl   $0x8d65,0x4(%esp)
    2f85:	00 
    2f86:	c7 04 24 00 00 00 00 	movl   $0x0,(%esp)
    2f8d:	e8 e0 0e 00 00       	call   3e72 <printf>
	printf(0, "biSizeImage实际位图数据占用的字节数:%d\n", pBmpInforHead->biSizeImage);
    2f92:	8b 45 08             	mov    0x8(%ebp),%eax
    2f95:	8b 40 14             	mov    0x14(%eax),%eax
    2f98:	89 44 24 08          	mov    %eax,0x8(%esp)
    2f9c:	c7 44 24 04 78 8d 00 	movl   $0x8d78,0x4(%esp)
    2fa3:	00 
    2fa4:	c7 04 24 00 00 00 00 	movl   $0x0,(%esp)
    2fab:	e8 c2 0e 00 00       	call   3e72 <printf>
	printf(0, "X方向分辨率:%d\n", pBmpInforHead->biXPelsPerMeter);
    2fb0:	8b 45 08             	mov    0x8(%ebp),%eax
    2fb3:	8b 40 18             	mov    0x18(%eax),%eax
    2fb6:	89 44 24 08          	mov    %eax,0x8(%esp)
    2fba:	c7 44 24 04 ac 8d 00 	movl   $0x8dac,0x4(%esp)
    2fc1:	00 
    2fc2:	c7 04 24 00 00 00 00 	movl   $0x0,(%esp)
    2fc9:	e8 a4 0e 00 00       	call   3e72 <printf>
	printf(0, "Y方向分辨率:%d\n", pBmpInforHead->biYPelsPerMeter);
    2fce:	8b 45 08             	mov    0x8(%ebp),%eax
    2fd1:	8b 40 1c             	mov    0x1c(%eax),%eax
    2fd4:	89 44 24 08          	mov    %eax,0x8(%esp)
    2fd8:	c7 44 24 04 c1 8d 00 	movl   $0x8dc1,0x4(%esp)
    2fdf:	00 
    2fe0:	c7 04 24 00 00 00 00 	movl   $0x0,(%esp)
    2fe7:	e8 86 0e 00 00       	call   3e72 <printf>
	printf(0, "使用的颜色数:%d\n", pBmpInforHead->biClrUsed);
    2fec:	8b 45 08             	mov    0x8(%ebp),%eax
    2fef:	8b 40 20             	mov    0x20(%eax),%eax
    2ff2:	89 44 24 08          	mov    %eax,0x8(%esp)
    2ff6:	c7 44 24 04 d6 8d 00 	movl   $0x8dd6,0x4(%esp)
    2ffd:	00 
    2ffe:	c7 04 24 00 00 00 00 	movl   $0x0,(%esp)
    3005:	e8 68 0e 00 00       	call   3e72 <printf>
	printf(0, "重要颜色数:%d\n", pBmpInforHead->biClrImportant);
    300a:	8b 45 08             	mov    0x8(%ebp),%eax
    300d:	8b 40 24             	mov    0x24(%eax),%eax
    3010:	89 44 24 08          	mov    %eax,0x8(%esp)
    3014:	c7 44 24 04 ed 8d 00 	movl   $0x8ded,0x4(%esp)
    301b:	00 
    301c:	c7 04 24 00 00 00 00 	movl   $0x0,(%esp)
    3023:	e8 4a 0e 00 00       	call   3e72 <printf>
}
    3028:	c9                   	leave  
    3029:	c3                   	ret    

0000302a <showRgbQuan>:
void showRgbQuan(RGBQUAD* pRGB) {
    302a:	55                   	push   %ebp
    302b:	89 e5                	mov    %esp,%ebp
    302d:	83 ec 28             	sub    $0x28,%esp
	printf(0, "(%d,%d,%d) ", pRGB->rgbRed, pRGB->rgbGreen, pRGB->rgbBlue);
    3030:	8b 45 08             	mov    0x8(%ebp),%eax
    3033:	0f b6 00             	movzbl (%eax),%eax
    3036:	0f b6 c8             	movzbl %al,%ecx
    3039:	8b 45 08             	mov    0x8(%ebp),%eax
    303c:	0f b6 40 01          	movzbl 0x1(%eax),%eax
    3040:	0f b6 d0             	movzbl %al,%edx
    3043:	8b 45 08             	mov    0x8(%ebp),%eax
    3046:	0f b6 40 02          	movzbl 0x2(%eax),%eax
    304a:	0f b6 c0             	movzbl %al,%eax
    304d:	89 4c 24 10          	mov    %ecx,0x10(%esp)
    3051:	89 54 24 0c          	mov    %edx,0xc(%esp)
    3055:	89 44 24 08          	mov    %eax,0x8(%esp)
    3059:	c7 44 24 04 01 8e 00 	movl   $0x8e01,0x4(%esp)
    3060:	00 
    3061:	c7 04 24 00 00 00 00 	movl   $0x0,(%esp)
    3068:	e8 05 0e 00 00       	call   3e72 <printf>
}
    306d:	c9                   	leave  
    306e:	c3                   	ret    

0000306f <freepic>:

void freepic(PICNODE *pic) {
    306f:	55                   	push   %ebp
    3070:	89 e5                	mov    %esp,%ebp
    3072:	83 ec 18             	sub    $0x18,%esp
	free(pic->data);
    3075:	8b 45 08             	mov    0x8(%ebp),%eax
    3078:	8b 00                	mov    (%eax),%eax
    307a:	89 04 24             	mov    %eax,(%esp)
    307d:	e8 a3 0f 00 00       	call   4025 <free>
}
    3082:	c9                   	leave  
    3083:	c3                   	ret    

00003084 <set_icon_alpha>:

void set_icon_alpha(PICNODE *pic) {
    3084:	55                   	push   %ebp
    3085:	89 e5                	mov    %esp,%ebp
    3087:	53                   	push   %ebx
    3088:	81 ec 84 00 00 00    	sub    $0x84,%esp
	int W = 15;
    308e:	c7 45 ec 0f 00 00 00 	movl   $0xf,-0x14(%ebp)
	Rect r1 = initRect(0, 0, W, W);
    3095:	8d 45 dc             	lea    -0x24(%ebp),%eax
    3098:	8b 55 ec             	mov    -0x14(%ebp),%edx
    309b:	89 54 24 10          	mov    %edx,0x10(%esp)
    309f:	8b 55 ec             	mov    -0x14(%ebp),%edx
    30a2:	89 54 24 0c          	mov    %edx,0xc(%esp)
    30a6:	c7 44 24 08 00 00 00 	movl   $0x0,0x8(%esp)
    30ad:	00 
    30ae:	c7 44 24 04 00 00 00 	movl   $0x0,0x4(%esp)
    30b5:	00 
    30b6:	89 04 24             	mov    %eax,(%esp)
    30b9:	e8 80 02 00 00       	call   333e <initRect>
    30be:	83 ec 04             	sub    $0x4,%esp
	Rect r2 = initRect(pic->width - W, 0, W, W);
    30c1:	8b 45 08             	mov    0x8(%ebp),%eax
    30c4:	8b 40 04             	mov    0x4(%eax),%eax
    30c7:	2b 45 ec             	sub    -0x14(%ebp),%eax
    30ca:	89 c2                	mov    %eax,%edx
    30cc:	8d 45 cc             	lea    -0x34(%ebp),%eax
    30cf:	8b 4d ec             	mov    -0x14(%ebp),%ecx
    30d2:	89 4c 24 10          	mov    %ecx,0x10(%esp)
    30d6:	8b 4d ec             	mov    -0x14(%ebp),%ecx
    30d9:	89 4c 24 0c          	mov    %ecx,0xc(%esp)
    30dd:	c7 44 24 08 00 00 00 	movl   $0x0,0x8(%esp)
    30e4:	00 
    30e5:	89 54 24 04          	mov    %edx,0x4(%esp)
    30e9:	89 04 24             	mov    %eax,(%esp)
    30ec:	e8 4d 02 00 00       	call   333e <initRect>
    30f1:	83 ec 04             	sub    $0x4,%esp
	Rect r3 = initRect(pic->width - W, pic->height - W, W, W);
    30f4:	8b 45 08             	mov    0x8(%ebp),%eax
    30f7:	8b 40 08             	mov    0x8(%eax),%eax
    30fa:	2b 45 ec             	sub    -0x14(%ebp),%eax
    30fd:	89 c1                	mov    %eax,%ecx
    30ff:	8b 45 08             	mov    0x8(%ebp),%eax
    3102:	8b 40 04             	mov    0x4(%eax),%eax
    3105:	2b 45 ec             	sub    -0x14(%ebp),%eax
    3108:	89 c2                	mov    %eax,%edx
    310a:	8d 45 bc             	lea    -0x44(%ebp),%eax
    310d:	8b 5d ec             	mov    -0x14(%ebp),%ebx
    3110:	89 5c 24 10          	mov    %ebx,0x10(%esp)
    3114:	8b 5d ec             	mov    -0x14(%ebp),%ebx
    3117:	89 5c 24 0c          	mov    %ebx,0xc(%esp)
    311b:	89 4c 24 08          	mov    %ecx,0x8(%esp)
    311f:	89 54 24 04          	mov    %edx,0x4(%esp)
    3123:	89 04 24             	mov    %eax,(%esp)
    3126:	e8 13 02 00 00       	call   333e <initRect>
    312b:	83 ec 04             	sub    $0x4,%esp
	Rect r4 = initRect(0, pic->height - W, W, W);
    312e:	8b 45 08             	mov    0x8(%ebp),%eax
    3131:	8b 40 08             	mov    0x8(%eax),%eax
    3134:	2b 45 ec             	sub    -0x14(%ebp),%eax
    3137:	89 c2                	mov    %eax,%edx
    3139:	8d 45 ac             	lea    -0x54(%ebp),%eax
    313c:	8b 4d ec             	mov    -0x14(%ebp),%ecx
    313f:	89 4c 24 10          	mov    %ecx,0x10(%esp)
    3143:	8b 4d ec             	mov    -0x14(%ebp),%ecx
    3146:	89 4c 24 0c          	mov    %ecx,0xc(%esp)
    314a:	89 54 24 08          	mov    %edx,0x8(%esp)
    314e:	c7 44 24 04 00 00 00 	movl   $0x0,0x4(%esp)
    3155:	00 
    3156:	89 04 24             	mov    %eax,(%esp)
    3159:	e8 e0 01 00 00       	call   333e <initRect>
    315e:	83 ec 04             	sub    $0x4,%esp
	Point p;
	int i, j;
	for (i = 0; i < pic->width; i++) {
    3161:	c7 45 f4 00 00 00 00 	movl   $0x0,-0xc(%ebp)
    3168:	e9 96 01 00 00       	jmp    3303 <set_icon_alpha+0x27f>
		for (j = 0; j < pic->height; j++) {
    316d:	c7 45 f0 00 00 00 00 	movl   $0x0,-0x10(%ebp)
    3174:	e9 77 01 00 00       	jmp    32f0 <set_icon_alpha+0x26c>
			p = initPoint(i, j);
    3179:	8d 45 a4             	lea    -0x5c(%ebp),%eax
    317c:	8b 55 f0             	mov    -0x10(%ebp),%edx
    317f:	89 54 24 08          	mov    %edx,0x8(%esp)
    3183:	8b 55 f4             	mov    -0xc(%ebp),%edx
    3186:	89 54 24 04          	mov    %edx,0x4(%esp)
    318a:	89 04 24             	mov    %eax,(%esp)
    318d:	e8 85 01 00 00       	call   3317 <initPoint>
    3192:	83 ec 04             	sub    $0x4,%esp
			if (isIn(p, r1) || isIn(p, r2) || isIn(p, r3) || isIn(p, r4)) {
    3195:	8b 45 dc             	mov    -0x24(%ebp),%eax
    3198:	89 44 24 08          	mov    %eax,0x8(%esp)
    319c:	8b 45 e0             	mov    -0x20(%ebp),%eax
    319f:	89 44 24 0c          	mov    %eax,0xc(%esp)
    31a3:	8b 45 e4             	mov    -0x1c(%ebp),%eax
    31a6:	89 44 24 10          	mov    %eax,0x10(%esp)
    31aa:	8b 45 e8             	mov    -0x18(%ebp),%eax
    31ad:	89 44 24 14          	mov    %eax,0x14(%esp)
    31b1:	8b 45 a4             	mov    -0x5c(%ebp),%eax
    31b4:	8b 55 a8             	mov    -0x58(%ebp),%edx
    31b7:	89 04 24             	mov    %eax,(%esp)
    31ba:	89 54 24 04          	mov    %edx,0x4(%esp)
    31be:	e8 d6 01 00 00       	call   3399 <isIn>
    31c3:	85 c0                	test   %eax,%eax
    31c5:	0f 85 9a 00 00 00    	jne    3265 <set_icon_alpha+0x1e1>
    31cb:	8b 45 cc             	mov    -0x34(%ebp),%eax
    31ce:	89 44 24 08          	mov    %eax,0x8(%esp)
    31d2:	8b 45 d0             	mov    -0x30(%ebp),%eax
    31d5:	89 44 24 0c          	mov    %eax,0xc(%esp)
    31d9:	8b 45 d4             	mov    -0x2c(%ebp),%eax
    31dc:	89 44 24 10          	mov    %eax,0x10(%esp)
    31e0:	8b 45 d8             	mov    -0x28(%ebp),%eax
    31e3:	89 44 24 14          	mov    %eax,0x14(%esp)
    31e7:	8b 45 a4             	mov    -0x5c(%ebp),%eax
    31ea:	8b 55 a8             	mov    -0x58(%ebp),%edx
    31ed:	89 04 24             	mov    %eax,(%esp)
    31f0:	89 54 24 04          	mov    %edx,0x4(%esp)
    31f4:	e8 a0 01 00 00       	call   3399 <isIn>
    31f9:	85 c0                	test   %eax,%eax
    31fb:	75 68                	jne    3265 <set_icon_alpha+0x1e1>
    31fd:	8b 45 bc             	mov    -0x44(%ebp),%eax
    3200:	89 44 24 08          	mov    %eax,0x8(%esp)
    3204:	8b 45 c0             	mov    -0x40(%ebp),%eax
    3207:	89 44 24 0c          	mov    %eax,0xc(%esp)
    320b:	8b 45 c4             	mov    -0x3c(%ebp),%eax
    320e:	89 44 24 10          	mov    %eax,0x10(%esp)
    3212:	8b 45 c8             	mov    -0x38(%ebp),%eax
    3215:	89 44 24 14          	mov    %eax,0x14(%esp)
    3219:	8b 45 a4             	mov    -0x5c(%ebp),%eax
    321c:	8b 55 a8             	mov    -0x58(%ebp),%edx
    321f:	89 04 24             	mov    %eax,(%esp)
    3222:	89 54 24 04          	mov    %edx,0x4(%esp)
    3226:	e8 6e 01 00 00       	call   3399 <isIn>
    322b:	85 c0                	test   %eax,%eax
    322d:	75 36                	jne    3265 <set_icon_alpha+0x1e1>
    322f:	8b 45 ac             	mov    -0x54(%ebp),%eax
    3232:	89 44 24 08          	mov    %eax,0x8(%esp)
    3236:	8b 45 b0             	mov    -0x50(%ebp),%eax
    3239:	89 44 24 0c          	mov    %eax,0xc(%esp)
    323d:	8b 45 b4             	mov    -0x4c(%ebp),%eax
    3240:	89 44 24 10          	mov    %eax,0x10(%esp)
    3244:	8b 45 b8             	mov    -0x48(%ebp),%eax
    3247:	89 44 24 14          	mov    %eax,0x14(%esp)
    324b:	8b 45 a4             	mov    -0x5c(%ebp),%eax
    324e:	8b 55 a8             	mov    -0x58(%ebp),%edx
    3251:	89 04 24             	mov    %eax,(%esp)
    3254:	89 54 24 04          	mov    %edx,0x4(%esp)
    3258:	e8 3c 01 00 00       	call   3399 <isIn>
    325d:	85 c0                	test   %eax,%eax
    325f:	0f 84 87 00 00 00    	je     32ec <set_icon_alpha+0x268>
				if (pic->data[j * pic->width + i].rgbBlue == 0xff
    3265:	8b 45 08             	mov    0x8(%ebp),%eax
    3268:	8b 10                	mov    (%eax),%edx
    326a:	8b 45 08             	mov    0x8(%ebp),%eax
    326d:	8b 40 04             	mov    0x4(%eax),%eax
    3270:	0f af 45 f0          	imul   -0x10(%ebp),%eax
    3274:	89 c1                	mov    %eax,%ecx
    3276:	8b 45 f4             	mov    -0xc(%ebp),%eax
    3279:	01 c8                	add    %ecx,%eax
    327b:	c1 e0 02             	shl    $0x2,%eax
    327e:	01 d0                	add    %edx,%eax
    3280:	0f b6 00             	movzbl (%eax),%eax
    3283:	3c ff                	cmp    $0xff,%al
    3285:	75 65                	jne    32ec <set_icon_alpha+0x268>
						&& pic->data[j * pic->width + i].rgbGreen == 0xff
    3287:	8b 45 08             	mov    0x8(%ebp),%eax
    328a:	8b 10                	mov    (%eax),%edx
    328c:	8b 45 08             	mov    0x8(%ebp),%eax
    328f:	8b 40 04             	mov    0x4(%eax),%eax
    3292:	0f af 45 f0          	imul   -0x10(%ebp),%eax
    3296:	89 c1                	mov    %eax,%ecx
    3298:	8b 45 f4             	mov    -0xc(%ebp),%eax
    329b:	01 c8                	add    %ecx,%eax
    329d:	c1 e0 02             	shl    $0x2,%eax
    32a0:	01 d0                	add    %edx,%eax
    32a2:	0f b6 40 01          	movzbl 0x1(%eax),%eax
    32a6:	3c ff                	cmp    $0xff,%al
    32a8:	75 42                	jne    32ec <set_icon_alpha+0x268>
						&& pic->data[j * pic->width + i].rgbRed == 0xff) {
    32aa:	8b 45 08             	mov    0x8(%ebp),%eax
    32ad:	8b 10                	mov    (%eax),%edx
    32af:	8b 45 08             	mov    0x8(%ebp),%eax
    32b2:	8b 40 04             	mov    0x4(%eax),%eax
    32b5:	0f af 45 f0          	imul   -0x10(%ebp),%eax
    32b9:	89 c1                	mov    %eax,%ecx
    32bb:	8b 45 f4             	mov    -0xc(%ebp),%eax
    32be:	01 c8                	add    %ecx,%eax
    32c0:	c1 e0 02             	shl    $0x2,%eax
    32c3:	01 d0                	add    %edx,%eax
    32c5:	0f b6 40 02          	movzbl 0x2(%eax),%eax
    32c9:	3c ff                	cmp    $0xff,%al
    32cb:	75 1f                	jne    32ec <set_icon_alpha+0x268>
					pic->data[j * pic->width + i].rgbReserved = 1;
    32cd:	8b 45 08             	mov    0x8(%ebp),%eax
    32d0:	8b 10                	mov    (%eax),%edx
    32d2:	8b 45 08             	mov    0x8(%ebp),%eax
    32d5:	8b 40 04             	mov    0x4(%eax),%eax
    32d8:	0f af 45 f0          	imul   -0x10(%ebp),%eax
    32dc:	89 c1                	mov    %eax,%ecx
    32de:	8b 45 f4             	mov    -0xc(%ebp),%eax
    32e1:	01 c8                	add    %ecx,%eax
    32e3:	c1 e0 02             	shl    $0x2,%eax
    32e6:	01 d0                	add    %edx,%eax
    32e8:	c6 40 03 01          	movb   $0x1,0x3(%eax)
	Rect r3 = initRect(pic->width - W, pic->height - W, W, W);
	Rect r4 = initRect(0, pic->height - W, W, W);
	Point p;
	int i, j;
	for (i = 0; i < pic->width; i++) {
		for (j = 0; j < pic->height; j++) {
    32ec:	83 45 f0 01          	addl   $0x1,-0x10(%ebp)
    32f0:	8b 45 08             	mov    0x8(%ebp),%eax
    32f3:	8b 40 08             	mov    0x8(%eax),%eax
    32f6:	3b 45 f0             	cmp    -0x10(%ebp),%eax
    32f9:	0f 8f 7a fe ff ff    	jg     3179 <set_icon_alpha+0xf5>
	Rect r2 = initRect(pic->width - W, 0, W, W);
	Rect r3 = initRect(pic->width - W, pic->height - W, W, W);
	Rect r4 = initRect(0, pic->height - W, W, W);
	Point p;
	int i, j;
	for (i = 0; i < pic->width; i++) {
    32ff:	83 45 f4 01          	addl   $0x1,-0xc(%ebp)
    3303:	8b 45 08             	mov    0x8(%ebp),%eax
    3306:	8b 40 04             	mov    0x4(%eax),%eax
    3309:	3b 45 f4             	cmp    -0xc(%ebp),%eax
    330c:	0f 8f 5b fe ff ff    	jg     316d <set_icon_alpha+0xe9>
					pic->data[j * pic->width + i].rgbReserved = 1;
				}
			}
		}
	}
}
    3312:	8b 5d fc             	mov    -0x4(%ebp),%ebx
    3315:	c9                   	leave  
    3316:	c3                   	ret    

00003317 <initPoint>:
#include "message.h"
#include "types.h"
#include "user.h"

Point initPoint(int x, int y)
{
    3317:	55                   	push   %ebp
    3318:	89 e5                	mov    %esp,%ebp
    331a:	83 ec 10             	sub    $0x10,%esp
	Point p;
	p.x = x;
    331d:	8b 45 0c             	mov    0xc(%ebp),%eax
    3320:	89 45 f8             	mov    %eax,-0x8(%ebp)
	p.y = y;
    3323:	8b 45 10             	mov    0x10(%ebp),%eax
    3326:	89 45 fc             	mov    %eax,-0x4(%ebp)
	return p;
    3329:	8b 4d 08             	mov    0x8(%ebp),%ecx
    332c:	8b 45 f8             	mov    -0x8(%ebp),%eax
    332f:	8b 55 fc             	mov    -0x4(%ebp),%edx
    3332:	89 01                	mov    %eax,(%ecx)
    3334:	89 51 04             	mov    %edx,0x4(%ecx)
}
    3337:	8b 45 08             	mov    0x8(%ebp),%eax
    333a:	c9                   	leave  
    333b:	c2 04 00             	ret    $0x4

0000333e <initRect>:

Rect initRect(int x, int y, int w, int h)
{
    333e:	55                   	push   %ebp
    333f:	89 e5                	mov    %esp,%ebp
    3341:	83 ec 24             	sub    $0x24,%esp
	Rect r;
	r.start = initPoint(x, y);
    3344:	8d 45 e8             	lea    -0x18(%ebp),%eax
    3347:	8b 55 10             	mov    0x10(%ebp),%edx
    334a:	89 54 24 08          	mov    %edx,0x8(%esp)
    334e:	8b 55 0c             	mov    0xc(%ebp),%edx
    3351:	89 54 24 04          	mov    %edx,0x4(%esp)
    3355:	89 04 24             	mov    %eax,(%esp)
    3358:	e8 ba ff ff ff       	call   3317 <initPoint>
    335d:	83 ec 04             	sub    $0x4,%esp
    3360:	8b 45 e8             	mov    -0x18(%ebp),%eax
    3363:	8b 55 ec             	mov    -0x14(%ebp),%edx
    3366:	89 45 f0             	mov    %eax,-0x10(%ebp)
    3369:	89 55 f4             	mov    %edx,-0xc(%ebp)
	r.width = w;
    336c:	8b 45 14             	mov    0x14(%ebp),%eax
    336f:	89 45 f8             	mov    %eax,-0x8(%ebp)
	r.height = h;
    3372:	8b 45 18             	mov    0x18(%ebp),%eax
    3375:	89 45 fc             	mov    %eax,-0x4(%ebp)
	return r;
    3378:	8b 45 08             	mov    0x8(%ebp),%eax
    337b:	8b 55 f0             	mov    -0x10(%ebp),%edx
    337e:	89 10                	mov    %edx,(%eax)
    3380:	8b 55 f4             	mov    -0xc(%ebp),%edx
    3383:	89 50 04             	mov    %edx,0x4(%eax)
    3386:	8b 55 f8             	mov    -0x8(%ebp),%edx
    3389:	89 50 08             	mov    %edx,0x8(%eax)
    338c:	8b 55 fc             	mov    -0x4(%ebp),%edx
    338f:	89 50 0c             	mov    %edx,0xc(%eax)
}
    3392:	8b 45 08             	mov    0x8(%ebp),%eax
    3395:	c9                   	leave  
    3396:	c2 04 00             	ret    $0x4

00003399 <isIn>:

int isIn(Point p, Rect r)
{
    3399:	55                   	push   %ebp
    339a:	89 e5                	mov    %esp,%ebp
	//printf(0, "Click point: %d %d\n", p.x, p.y);
	//printf(0, "Rect area: %d %d %d %d\n",r.start.x, r.start.y, r.start.x+r.width, r.start.y+r.height);
	return (p.x >= r.start.x) && (p.x < r.start.x+r.width)
    339c:	8b 55 08             	mov    0x8(%ebp),%edx
    339f:	8b 45 10             	mov    0x10(%ebp),%eax
			&& (p.y >= r.start.y) && (p.y < r.start.y+r.height);
    33a2:	39 c2                	cmp    %eax,%edx
    33a4:	7c 2f                	jl     33d5 <isIn+0x3c>

int isIn(Point p, Rect r)
{
	//printf(0, "Click point: %d %d\n", p.x, p.y);
	//printf(0, "Rect area: %d %d %d %d\n",r.start.x, r.start.y, r.start.x+r.width, r.start.y+r.height);
	return (p.x >= r.start.x) && (p.x < r.start.x+r.width)
    33a6:	8b 45 08             	mov    0x8(%ebp),%eax
    33a9:	8b 4d 10             	mov    0x10(%ebp),%ecx
    33ac:	8b 55 18             	mov    0x18(%ebp),%edx
    33af:	01 ca                	add    %ecx,%edx
    33b1:	39 d0                	cmp    %edx,%eax
    33b3:	7d 20                	jge    33d5 <isIn+0x3c>
			&& (p.y >= r.start.y) && (p.y < r.start.y+r.height);
    33b5:	8b 55 0c             	mov    0xc(%ebp),%edx
    33b8:	8b 45 14             	mov    0x14(%ebp),%eax
    33bb:	39 c2                	cmp    %eax,%edx
    33bd:	7c 16                	jl     33d5 <isIn+0x3c>
    33bf:	8b 45 0c             	mov    0xc(%ebp),%eax
    33c2:	8b 4d 14             	mov    0x14(%ebp),%ecx
    33c5:	8b 55 1c             	mov    0x1c(%ebp),%edx
    33c8:	01 ca                	add    %ecx,%edx
    33ca:	39 d0                	cmp    %edx,%eax
    33cc:	7d 07                	jge    33d5 <isIn+0x3c>
    33ce:	b8 01 00 00 00       	mov    $0x1,%eax
    33d3:	eb 05                	jmp    33da <isIn+0x41>
    33d5:	b8 00 00 00 00       	mov    $0x0,%eax
}
    33da:	5d                   	pop    %ebp
    33db:	c3                   	ret    

000033dc <initClickManager>:

ClickableManager initClickManager(struct Context c)
{
    33dc:	55                   	push   %ebp
    33dd:	89 e5                	mov    %esp,%ebp
    33df:	83 ec 20             	sub    $0x20,%esp
	ClickableManager cm;
	cm.left_click = 0;
    33e2:	c7 45 ec 00 00 00 00 	movl   $0x0,-0x14(%ebp)
	cm.double_click = 0;
    33e9:	c7 45 f0 00 00 00 00 	movl   $0x0,-0x10(%ebp)
	cm.right_click = 0;
    33f0:	c7 45 f4 00 00 00 00 	movl   $0x0,-0xc(%ebp)
	cm.wndWidth = c.width;
    33f7:	8b 45 10             	mov    0x10(%ebp),%eax
    33fa:	89 45 f8             	mov    %eax,-0x8(%ebp)
	cm.wndHeight = c.height;
    33fd:	8b 45 14             	mov    0x14(%ebp),%eax
    3400:	89 45 fc             	mov    %eax,-0x4(%ebp)
	return cm;
    3403:	8b 45 08             	mov    0x8(%ebp),%eax
    3406:	8b 55 ec             	mov    -0x14(%ebp),%edx
    3409:	89 10                	mov    %edx,(%eax)
    340b:	8b 55 f0             	mov    -0x10(%ebp),%edx
    340e:	89 50 04             	mov    %edx,0x4(%eax)
    3411:	8b 55 f4             	mov    -0xc(%ebp),%edx
    3414:	89 50 08             	mov    %edx,0x8(%eax)
    3417:	8b 55 f8             	mov    -0x8(%ebp),%edx
    341a:	89 50 0c             	mov    %edx,0xc(%eax)
    341d:	8b 55 fc             	mov    -0x4(%ebp),%edx
    3420:	89 50 10             	mov    %edx,0x10(%eax)
}
    3423:	8b 45 08             	mov    0x8(%ebp),%eax
    3426:	c9                   	leave  
    3427:	c2 04 00             	ret    $0x4

0000342a <createClickable>:

void createClickable(ClickableManager *c, Rect r, int MsgType, Handler h)
{
    342a:	55                   	push   %ebp
    342b:	89 e5                	mov    %esp,%ebp
    342d:	83 ec 28             	sub    $0x28,%esp
	switch (MsgType)
    3430:	8b 45 1c             	mov    0x1c(%ebp),%eax
    3433:	83 f8 03             	cmp    $0x3,%eax
    3436:	74 72                	je     34aa <createClickable+0x80>
    3438:	83 f8 04             	cmp    $0x4,%eax
    343b:	74 0a                	je     3447 <createClickable+0x1d>
    343d:	83 f8 02             	cmp    $0x2,%eax
    3440:	74 38                	je     347a <createClickable+0x50>
    3442:	e9 96 00 00 00       	jmp    34dd <createClickable+0xb3>
	{
		case MSG_DOUBLECLICK:
			addClickable(&c->double_click, r, h);
    3447:	8b 45 08             	mov    0x8(%ebp),%eax
    344a:	8d 50 04             	lea    0x4(%eax),%edx
    344d:	8b 45 20             	mov    0x20(%ebp),%eax
    3450:	89 44 24 14          	mov    %eax,0x14(%esp)
    3454:	8b 45 0c             	mov    0xc(%ebp),%eax
    3457:	89 44 24 04          	mov    %eax,0x4(%esp)
    345b:	8b 45 10             	mov    0x10(%ebp),%eax
    345e:	89 44 24 08          	mov    %eax,0x8(%esp)
    3462:	8b 45 14             	mov    0x14(%ebp),%eax
    3465:	89 44 24 0c          	mov    %eax,0xc(%esp)
    3469:	8b 45 18             	mov    0x18(%ebp),%eax
    346c:	89 44 24 10          	mov    %eax,0x10(%esp)
    3470:	89 14 24             	mov    %edx,(%esp)
    3473:	e8 7c 00 00 00       	call   34f4 <addClickable>
	        break;
    3478:	eb 78                	jmp    34f2 <createClickable+0xc8>
	    case MSG_LPRESS:
	    	addClickable(&c->left_click, r, h);
    347a:	8b 45 08             	mov    0x8(%ebp),%eax
    347d:	8b 55 20             	mov    0x20(%ebp),%edx
    3480:	89 54 24 14          	mov    %edx,0x14(%esp)
    3484:	8b 55 0c             	mov    0xc(%ebp),%edx
    3487:	89 54 24 04          	mov    %edx,0x4(%esp)
    348b:	8b 55 10             	mov    0x10(%ebp),%edx
    348e:	89 54 24 08          	mov    %edx,0x8(%esp)
    3492:	8b 55 14             	mov    0x14(%ebp),%edx
    3495:	89 54 24 0c          	mov    %edx,0xc(%esp)
    3499:	8b 55 18             	mov    0x18(%ebp),%edx
    349c:	89 54 24 10          	mov    %edx,0x10(%esp)
    34a0:	89 04 24             	mov    %eax,(%esp)
    34a3:	e8 4c 00 00 00       	call   34f4 <addClickable>
	    	break;
    34a8:	eb 48                	jmp    34f2 <createClickable+0xc8>
	    case MSG_RPRESS:
	    	addClickable(&c->right_click, r, h);
    34aa:	8b 45 08             	mov    0x8(%ebp),%eax
    34ad:	8d 50 08             	lea    0x8(%eax),%edx
    34b0:	8b 45 20             	mov    0x20(%ebp),%eax
    34b3:	89 44 24 14          	mov    %eax,0x14(%esp)
    34b7:	8b 45 0c             	mov    0xc(%ebp),%eax
    34ba:	89 44 24 04          	mov    %eax,0x4(%esp)
    34be:	8b 45 10             	mov    0x10(%ebp),%eax
    34c1:	89 44 24 08          	mov    %eax,0x8(%esp)
    34c5:	8b 45 14             	mov    0x14(%ebp),%eax
    34c8:	89 44 24 0c          	mov    %eax,0xc(%esp)
    34cc:	8b 45 18             	mov    0x18(%ebp),%eax
    34cf:	89 44 24 10          	mov    %eax,0x10(%esp)
    34d3:	89 14 24             	mov    %edx,(%esp)
    34d6:	e8 19 00 00 00       	call   34f4 <addClickable>
	    	break;
    34db:	eb 15                	jmp    34f2 <createClickable+0xc8>
	    default:
	    	printf(0, "向clickable传递了非鼠标点击事件！");
    34dd:	c7 44 24 04 10 8e 00 	movl   $0x8e10,0x4(%esp)
    34e4:	00 
    34e5:	c7 04 24 00 00 00 00 	movl   $0x0,(%esp)
    34ec:	e8 81 09 00 00       	call   3e72 <printf>
	    	break;
    34f1:	90                   	nop
	}
}
    34f2:	c9                   	leave  
    34f3:	c3                   	ret    

000034f4 <addClickable>:

void addClickable(Clickable **head, Rect r, Handler h)
{
    34f4:	55                   	push   %ebp
    34f5:	89 e5                	mov    %esp,%ebp
    34f7:	83 ec 28             	sub    $0x28,%esp
	//printf(0, "adding clickable\n");
	Clickable *c = (Clickable *)malloc(sizeof(Clickable));
    34fa:	c7 04 24 18 00 00 00 	movl   $0x18,(%esp)
    3501:	e8 58 0c 00 00       	call   415e <malloc>
    3506:	89 45 f4             	mov    %eax,-0xc(%ebp)
	c->area = r;
    3509:	8b 45 f4             	mov    -0xc(%ebp),%eax
    350c:	8b 55 0c             	mov    0xc(%ebp),%edx
    350f:	89 10                	mov    %edx,(%eax)
    3511:	8b 55 10             	mov    0x10(%ebp),%edx
    3514:	89 50 04             	mov    %edx,0x4(%eax)
    3517:	8b 55 14             	mov    0x14(%ebp),%edx
    351a:	89 50 08             	mov    %edx,0x8(%eax)
    351d:	8b 55 18             	mov    0x18(%ebp),%edx
    3520:	89 50 0c             	mov    %edx,0xc(%eax)
	c->handler = h;
    3523:	8b 45 f4             	mov    -0xc(%ebp),%eax
    3526:	8b 55 1c             	mov    0x1c(%ebp),%edx
    3529:	89 50 10             	mov    %edx,0x10(%eax)
	c->next = *head;
    352c:	8b 45 08             	mov    0x8(%ebp),%eax
    352f:	8b 10                	mov    (%eax),%edx
    3531:	8b 45 f4             	mov    -0xc(%ebp),%eax
    3534:	89 50 14             	mov    %edx,0x14(%eax)
	*head = c;
    3537:	8b 45 08             	mov    0x8(%ebp),%eax
    353a:	8b 55 f4             	mov    -0xc(%ebp),%edx
    353d:	89 10                	mov    %edx,(%eax)
}
    353f:	c9                   	leave  
    3540:	c3                   	ret    

00003541 <deleteClickable>:

void deleteClickable(Clickable **head, Rect region)
{
    3541:	55                   	push   %ebp
    3542:	89 e5                	mov    %esp,%ebp
    3544:	83 ec 38             	sub    $0x38,%esp
	Clickable *prev, *cur, *temp;
	prev = cur = *head;
    3547:	8b 45 08             	mov    0x8(%ebp),%eax
    354a:	8b 00                	mov    (%eax),%eax
    354c:	89 45 f0             	mov    %eax,-0x10(%ebp)
    354f:	8b 45 f0             	mov    -0x10(%ebp),%eax
    3552:	89 45 f4             	mov    %eax,-0xc(%ebp)
	while (cur != 0)
    3555:	e9 bb 00 00 00       	jmp    3615 <deleteClickable+0xd4>
	{
		if (isIn(cur->area.start, region))
    355a:	8b 45 0c             	mov    0xc(%ebp),%eax
    355d:	89 44 24 08          	mov    %eax,0x8(%esp)
    3561:	8b 45 10             	mov    0x10(%ebp),%eax
    3564:	89 44 24 0c          	mov    %eax,0xc(%esp)
    3568:	8b 45 14             	mov    0x14(%ebp),%eax
    356b:	89 44 24 10          	mov    %eax,0x10(%esp)
    356f:	8b 45 18             	mov    0x18(%ebp),%eax
    3572:	89 44 24 14          	mov    %eax,0x14(%esp)
    3576:	8b 45 f0             	mov    -0x10(%ebp),%eax
    3579:	8b 50 04             	mov    0x4(%eax),%edx
    357c:	8b 00                	mov    (%eax),%eax
    357e:	89 04 24             	mov    %eax,(%esp)
    3581:	89 54 24 04          	mov    %edx,0x4(%esp)
    3585:	e8 0f fe ff ff       	call   3399 <isIn>
    358a:	85 c0                	test   %eax,%eax
    358c:	74 60                	je     35ee <deleteClickable+0xad>
		{
			//如果当前指针指向头部
			if (cur == *head)
    358e:	8b 45 08             	mov    0x8(%ebp),%eax
    3591:	8b 00                	mov    (%eax),%eax
    3593:	3b 45 f0             	cmp    -0x10(%ebp),%eax
    3596:	75 2e                	jne    35c6 <deleteClickable+0x85>
			{
				//删除头节点
				temp = *head;
    3598:	8b 45 08             	mov    0x8(%ebp),%eax
    359b:	8b 00                	mov    (%eax),%eax
    359d:	89 45 ec             	mov    %eax,-0x14(%ebp)
				*head = cur->next;
    35a0:	8b 45 f0             	mov    -0x10(%ebp),%eax
    35a3:	8b 50 14             	mov    0x14(%eax),%edx
    35a6:	8b 45 08             	mov    0x8(%ebp),%eax
    35a9:	89 10                	mov    %edx,(%eax)
				cur = prev = *head;
    35ab:	8b 45 08             	mov    0x8(%ebp),%eax
    35ae:	8b 00                	mov    (%eax),%eax
    35b0:	89 45 f4             	mov    %eax,-0xc(%ebp)
    35b3:	8b 45 f4             	mov    -0xc(%ebp),%eax
    35b6:	89 45 f0             	mov    %eax,-0x10(%ebp)
				free(temp);
    35b9:	8b 45 ec             	mov    -0x14(%ebp),%eax
    35bc:	89 04 24             	mov    %eax,(%esp)
    35bf:	e8 61 0a 00 00       	call   4025 <free>
    35c4:	eb 4f                	jmp    3615 <deleteClickable+0xd4>
			}
			else
			{
				//删除当前节点
				prev->next = cur->next;
    35c6:	8b 45 f0             	mov    -0x10(%ebp),%eax
    35c9:	8b 50 14             	mov    0x14(%eax),%edx
    35cc:	8b 45 f4             	mov    -0xc(%ebp),%eax
    35cf:	89 50 14             	mov    %edx,0x14(%eax)
				temp = cur;
    35d2:	8b 45 f0             	mov    -0x10(%ebp),%eax
    35d5:	89 45 ec             	mov    %eax,-0x14(%ebp)
				cur = cur->next;
    35d8:	8b 45 f0             	mov    -0x10(%ebp),%eax
    35db:	8b 40 14             	mov    0x14(%eax),%eax
    35de:	89 45 f0             	mov    %eax,-0x10(%ebp)
				free(temp);
    35e1:	8b 45 ec             	mov    -0x14(%ebp),%eax
    35e4:	89 04 24             	mov    %eax,(%esp)
    35e7:	e8 39 0a 00 00       	call   4025 <free>
    35ec:	eb 27                	jmp    3615 <deleteClickable+0xd4>
			}
		}
		else
		{
			//如果当前节点是头节点，
			if (cur == *head)
    35ee:	8b 45 08             	mov    0x8(%ebp),%eax
    35f1:	8b 00                	mov    (%eax),%eax
    35f3:	3b 45 f0             	cmp    -0x10(%ebp),%eax
    35f6:	75 0b                	jne    3603 <deleteClickable+0xc2>
			{
				cur = cur->next;
    35f8:	8b 45 f0             	mov    -0x10(%ebp),%eax
    35fb:	8b 40 14             	mov    0x14(%eax),%eax
    35fe:	89 45 f0             	mov    %eax,-0x10(%ebp)
    3601:	eb 12                	jmp    3615 <deleteClickable+0xd4>
			}
			else
			{
				cur = cur->next;
    3603:	8b 45 f0             	mov    -0x10(%ebp),%eax
    3606:	8b 40 14             	mov    0x14(%eax),%eax
    3609:	89 45 f0             	mov    %eax,-0x10(%ebp)
				prev = prev->next;
    360c:	8b 45 f4             	mov    -0xc(%ebp),%eax
    360f:	8b 40 14             	mov    0x14(%eax),%eax
    3612:	89 45 f4             	mov    %eax,-0xc(%ebp)

void deleteClickable(Clickable **head, Rect region)
{
	Clickable *prev, *cur, *temp;
	prev = cur = *head;
	while (cur != 0)
    3615:	83 7d f0 00          	cmpl   $0x0,-0x10(%ebp)
    3619:	0f 85 3b ff ff ff    	jne    355a <deleteClickable+0x19>
				cur = cur->next;
				prev = prev->next;
			}
		}
	}
}
    361f:	c9                   	leave  
    3620:	c3                   	ret    

00003621 <executeHandler>:

int executeHandler(Clickable *head, Point click)
{
    3621:	55                   	push   %ebp
    3622:	89 e5                	mov    %esp,%ebp
    3624:	83 ec 38             	sub    $0x38,%esp
	Clickable *cur = head;
    3627:	8b 45 08             	mov    0x8(%ebp),%eax
    362a:	89 45 f4             	mov    %eax,-0xc(%ebp)
	while (cur != 0)
    362d:	e9 80 00 00 00       	jmp    36b2 <executeHandler+0x91>
	{
		printf(0, "CurArea:X:%d Y:%d\n", cur->area.start.x, cur->area.start.y);
    3632:	8b 45 f4             	mov    -0xc(%ebp),%eax
    3635:	8b 50 04             	mov    0x4(%eax),%edx
    3638:	8b 45 f4             	mov    -0xc(%ebp),%eax
    363b:	8b 00                	mov    (%eax),%eax
    363d:	89 54 24 0c          	mov    %edx,0xc(%esp)
    3641:	89 44 24 08          	mov    %eax,0x8(%esp)
    3645:	c7 44 24 04 3e 8e 00 	movl   $0x8e3e,0x4(%esp)
    364c:	00 
    364d:	c7 04 24 00 00 00 00 	movl   $0x0,(%esp)
    3654:	e8 19 08 00 00       	call   3e72 <printf>
		if (isIn(click, cur->area))
    3659:	8b 45 f4             	mov    -0xc(%ebp),%eax
    365c:	8b 10                	mov    (%eax),%edx
    365e:	89 54 24 08          	mov    %edx,0x8(%esp)
    3662:	8b 50 04             	mov    0x4(%eax),%edx
    3665:	89 54 24 0c          	mov    %edx,0xc(%esp)
    3669:	8b 50 08             	mov    0x8(%eax),%edx
    366c:	89 54 24 10          	mov    %edx,0x10(%esp)
    3670:	8b 40 0c             	mov    0xc(%eax),%eax
    3673:	89 44 24 14          	mov    %eax,0x14(%esp)
    3677:	8b 45 0c             	mov    0xc(%ebp),%eax
    367a:	8b 55 10             	mov    0x10(%ebp),%edx
    367d:	89 04 24             	mov    %eax,(%esp)
    3680:	89 54 24 04          	mov    %edx,0x4(%esp)
    3684:	e8 10 fd ff ff       	call   3399 <isIn>
    3689:	85 c0                	test   %eax,%eax
    368b:	74 1c                	je     36a9 <executeHandler+0x88>
		{
			cur->handler(click);
    368d:	8b 45 f4             	mov    -0xc(%ebp),%eax
    3690:	8b 48 10             	mov    0x10(%eax),%ecx
    3693:	8b 45 0c             	mov    0xc(%ebp),%eax
    3696:	8b 55 10             	mov    0x10(%ebp),%edx
    3699:	89 04 24             	mov    %eax,(%esp)
    369c:	89 54 24 04          	mov    %edx,0x4(%esp)
    36a0:	ff d1                	call   *%ecx
			return 1;
    36a2:	b8 01 00 00 00       	mov    $0x1,%eax
    36a7:	eb 2c                	jmp    36d5 <executeHandler+0xb4>
		}
		cur = cur->next;
    36a9:	8b 45 f4             	mov    -0xc(%ebp),%eax
    36ac:	8b 40 14             	mov    0x14(%eax),%eax
    36af:	89 45 f4             	mov    %eax,-0xc(%ebp)
}

int executeHandler(Clickable *head, Point click)
{
	Clickable *cur = head;
	while (cur != 0)
    36b2:	83 7d f4 00          	cmpl   $0x0,-0xc(%ebp)
    36b6:	0f 85 76 ff ff ff    	jne    3632 <executeHandler+0x11>
			cur->handler(click);
			return 1;
		}
		cur = cur->next;
	}
	printf(0, "execute: none!\n");
    36bc:	c7 44 24 04 51 8e 00 	movl   $0x8e51,0x4(%esp)
    36c3:	00 
